(dp1
S'output'
p2
S"<type 'exceptions.SyntaxError'> invalid syntax (index.html, line 4)"
p3
sS'layer'
p4
S'/home/shubham/web2py/applications/Search_Engine/views/search/index.html'
p5
sS'code'
p6
S'response.write(\'<!DOCTYPE html>\\n<html>\\n<head>\\n  <meta charset="utf-8" />\\n  <title>\', escape=False)\nresponse.write(response.title or request.application)\nresponse.write(\'</title>\\n  <link href="\', escape=False)\nresponse.write(URL(\'static\',\'bootstrap/css/bootstrap.min.css\'i))\nresponse.write(\'" rel="stylesheet">\\n\\n</head>\\n<body>\\n\\n    <div class="navbar navbar-inverse navbar-fixed-top">\\n        <a class="navbar-brand" href="#">Search Engine</a>\\n        <div class="container">\\n            <form class="navbar-form navbar-left">\\n                <input type="text" class="form-control" placeholder="Search">\\n            </form>\\n        </div>\\n    </div>\\n\\n    <div class="flash">\', escape=False)\nresponse.write(response.flash or \'\')\nresponse.write(\'</div>\\n\\n    <script src="https://ajax.googleapis.com/ajax/libs/jquery/1.11.3/jquery.min.js"></script>\\n    <script src="{{=URL(\\\'static\\\',bootstrap/js/bootstrap.min.js"></script>\\n\\n</body>\\n</html>\\n\', escape=False)'
p7
sS'snapshot'
p8
(dp9
S'exception'
p10
(dp11
S'__getslice__'
p12
S"<method-wrapper '__getslice__' of exceptions.SyntaxError object>"
p13
sS'text'
p14
S'"response.write(URL(\'static\',\'bootstrap/css/bootstrap.min.css\'i))\\n"'
p15
sS'__str__'
p16
S"<method-wrapper '__str__' of exceptions.SyntaxError object>"
p17
sS'__reduce__'
p18
S'<built-in method __reduce__ of exceptions.SyntaxError object>'
p19
sS'__dict__'
p20
S'{}'
p21
sS'__sizeof__'
p22
S'<built-in method __sizeof__ of exceptions.SyntaxError object>'
p23
sS'__init__'
p24
S"<method-wrapper '__init__' of exceptions.SyntaxError object>"
p25
sS'__setattr__'
p26
S"<method-wrapper '__setattr__' of exceptions.SyntaxError object>"
p27
sS'__reduce_ex__'
p28
S'<built-in method __reduce_ex__ of exceptions.SyntaxError object>'
p29
sS'__new__'
p30
S'<built-in method __new__ of type object>'
p31
sS'__format__'
p32
S'<built-in method __format__ of exceptions.SyntaxError object>'
p33
sS'__class__'
p34
S"<type 'exceptions.SyntaxError'>"
p35
sS'filename'
p36
S"'/home/shubham/web2py/applications/Search_Engine/views/search/index.html'"
p37
sS'lineno'
p38
S'4'
sS'msg'
p39
S"'invalid syntax'"
p40
sS'__doc__'
p41
S"'Invalid syntax.'"
p42
sS'__getitem__'
p43
S"<method-wrapper '__getitem__' of exceptions.SyntaxError object>"
p44
sS'__setstate__'
p45
S'<built-in method __setstate__ of exceptions.SyntaxError object>'
p46
sS'__getattribute__'
p47
S"<method-wrapper '__getattribute__' of exceptions.SyntaxError object>"
p48
sS'print_file_and_line'
p49
S'None'
p50
sS'args'
p51
S'(\'invalid syntax\', (\'/home/shubham/web2py/applications/Search_Engine/views/search/index.html\', 4, 62, "response.write(URL(\'static\',\'bootstrap/css/bootstrap.min.css\'i))\\n"))'
p52
sS'__subclasshook__'
p53
S'<built-in method __subclasshook__ of type object>'
p54
sS'offset'
p55
S'62'
p56
sS'__unicode__'
p57
S'<built-in method __unicode__ of exceptions.SyntaxError object>'
p58
sS'__delattr__'
p59
S"<method-wrapper '__delattr__' of exceptions.SyntaxError object>"
p60
sS'__repr__'
p61
S"<method-wrapper '__repr__' of exceptions.SyntaxError object>"
p62
sS'__hash__'
p63
S"<method-wrapper '__hash__' of exceptions.SyntaxError object>"
p64
ssS'evalue'
p65
S'invalid syntax (index.html, line 4)'
p66
sS'request'
p67
ccopy_reg
_reconstructor
p68
(cgluon.html
BEAUTIFY
p69
c__builtin__
object
p70
NtRp71
(dp72
S'attributes'
p73
(dp74
sS'components'
p75
(lp76
g68
(cgluon.html
TABLE
p77
g70
NtRp78
(dp79
g73
(dp80
S'level'
p81
I5
ssS'parent'
p82
Nsg75
(lp83
g68
(cgluon.html
TR
p84
g70
NtRp85
(dp86
g73
(dp87
sg82
g78
sg75
(lp88
g68
(cgluon.html
TD
p89
g70
NtRp90
(dp91
g73
(dp92
S'_style'
p93
S'font-weight:bold;vertical-align:top'
p94
ssg82
g85
sg75
(lp95
S'ajax'
p96
asbag68
(g89
g70
NtRp97
(dp98
g73
(dp99
S'_valign'
p100
S'top'
p101
ssg82
g85
sg75
(lp102
S':'
asbag68
(g89
g70
NtRp103
(dp104
g73
(dp105
sg82
g85
sg75
(lp106
g68
(g69
g70
NtRp107
(dp108
g73
(dp109
g81
I5
ssg82
g103
sg75
(lp110
S'False'
p111
asbasbasbag68
(g84
g70
NtRp112
(dp113
g73
(dp114
sg82
g78
sg75
(lp115
g68
(g89
g70
NtRp116
(dp117
g73
(dp118
g93
g94
ssg82
g112
sg75
(lp119
S'application'
p120
asbag68
(g89
g70
NtRp121
(dp122
g73
(dp123
g100
g101
ssg82
g112
sg75
(lp124
S':'
asbag68
(g89
g70
NtRp125
(dp126
g73
(dp127
sg82
g112
sg75
(lp128
g68
(g69
g70
NtRp129
(dp130
g73
(dp131
g81
I5
ssg82
g125
sg75
(lp132
S'Search_Engine'
p133
asbasbasbag68
(g84
g70
NtRp134
(dp135
g73
(dp136
sg82
g78
sg75
(lp137
g68
(g89
g70
NtRp138
(dp139
g73
(dp140
g93
g94
ssg82
g134
sg75
(lp141
g51
asbag68
(g89
g70
NtRp142
(dp143
g73
(dp144
g100
g101
ssg82
g134
sg75
(lp145
S':'
asbag68
(g89
g70
NtRp146
(dp147
g73
(dp148
sg82
g134
sg75
(lp149
g68
(g69
g70
NtRp150
(dp151
g73
(dp152
g81
I5
ssg82
g146
sg75
(lp153
g68
(g77
g70
NtRp154
(dp155
g73
(dp156
g81
I4
ssg82
Nsg75
(lp157
sbasbasbasbag68
(g84
g70
NtRp158
(dp159
g73
(dp160
sg82
g78
sg75
(lp161
g68
(g89
g70
NtRp162
(dp163
g73
(dp164
g93
g94
ssg82
g158
sg75
(lp165
S'body'
p166
asbag68
(g89
g70
NtRp167
(dp168
g73
(dp169
g100
g101
ssg82
g158
sg75
(lp170
S':'
asbag68
(g89
g70
NtRp171
(dp172
g73
(dp173
sg82
g158
sg75
(lp174
g68
(g69
g70
NtRp175
(dp176
g73
(dp177
g81
I5
ssg82
g171
sg75
(lp178
S'<cStringIO.StringO object at 0x7fbdb2d01c00>'
p179
asbasbasbag68
(g84
g70
NtRp180
(dp181
g73
(dp182
sg82
g78
sg75
(lp183
g68
(g89
g70
NtRp184
(dp185
g73
(dp186
g93
g94
ssg82
g180
sg75
(lp187
S'client'
p188
asbag68
(g89
g70
NtRp189
(dp190
g73
(dp191
g100
g101
ssg82
g180
sg75
(lp192
S':'
asbag68
(g89
g70
NtRp193
(dp194
g73
(dp195
sg82
g180
sg75
(lp196
g68
(g69
g70
NtRp197
(dp198
g73
(dp199
g81
I5
ssg82
g193
sg75
(lp200
S'127.0.0.1'
p201
asbasbasbag68
(g84
g70
NtRp202
(dp203
g73
(dp204
sg82
g78
sg75
(lp205
g68
(g89
g70
NtRp206
(dp207
g73
(dp208
g93
g94
ssg82
g202
sg75
(lp209
S'controller'
p210
asbag68
(g89
g70
NtRp211
(dp212
g73
(dp213
g100
g101
ssg82
g202
sg75
(lp214
S':'
asbag68
(g89
g70
NtRp215
(dp216
g73
(dp217
sg82
g202
sg75
(lp218
g68
(g69
g70
NtRp219
(dp220
g73
(dp221
g81
I5
ssg82
g215
sg75
(lp222
S'search'
p223
asbasbasbag68
(g84
g70
NtRp224
(dp225
g73
(dp226
sg82
g78
sg75
(lp227
g68
(g89
g70
NtRp228
(dp229
g73
(dp230
g93
g94
ssg82
g224
sg75
(lp231
S'cookies'
p232
asbag68
(g89
g70
NtRp233
(dp234
g73
(dp235
g100
g101
ssg82
g224
sg75
(lp236
S':'
asbag68
(g89
g70
NtRp237
(dp238
g73
(dp239
sg82
g224
sg75
(lp240
g68
(g69
g70
NtRp241
(dp242
g73
(dp243
g81
I5
ssg82
g237
sg75
(lp244
g68
(g77
g70
NtRp245
(dp246
g73
(dp247
g81
I4
ssg82
Nsg75
(lp248
g68
(g84
g70
NtRp249
(dp250
g73
(dp251
sg82
g245
sg75
(lp252
g68
(g89
g70
NtRp253
(dp254
g73
(dp255
g93
g94
ssg82
g249
sg75
(lp256
S'session_id_admin'
p257
asbag68
(g89
g70
NtRp258
(dp259
g73
(dp260
g100
g101
ssg82
g249
sg75
(lp261
S':'
asbag68
(g89
g70
NtRp262
(dp263
g73
(dp264
sg82
g249
sg75
(lp265
g68
(g69
g70
NtRp266
(dp267
g73
(dp268
g81
I4
ssg82
g262
sg75
(lp269
g68
(g77
g70
NtRp270
(dp271
g73
(dp272
g81
I3
ssg82
Nsg75
(lp273
g68
(g84
g70
NtRp274
(dp275
g73
(dp276
sg82
g270
sg75
(lp277
g68
(g89
g70
NtRp278
(dp279
g73
(dp280
g93
g94
ssg82
g274
sg75
(lp281
S'comment'
p282
asbag68
(g89
g70
NtRp283
(dp284
g73
(dp285
g100
g101
ssg82
g274
sg75
(lp286
S':'
asbag68
(g89
g70
NtRp287
(dp288
g73
(dp289
sg82
g274
sg75
(lp290
g68
(g69
g70
NtRp291
(dp292
g73
(dp293
g81
I3
ssg82
g287
sg75
(lp294
S''
asbasbasbag68
(g84
g70
NtRp295
(dp296
g73
(dp297
sg82
g270
sg75
(lp298
g68
(g89
g70
NtRp299
(dp300
g73
(dp301
g93
g94
ssg82
g295
sg75
(lp302
S'domain'
p303
asbag68
(g89
g70
NtRp304
(dp305
g73
(dp306
g100
g101
ssg82
g295
sg75
(lp307
S':'
asbag68
(g89
g70
NtRp308
(dp309
g73
(dp310
sg82
g295
sg75
(lp311
g68
(g69
g70
NtRp312
(dp313
g73
(dp314
g81
I3
ssg82
g308
sg75
(lp315
S''
asbasbasbag68
(g84
g70
NtRp316
(dp317
g73
(dp318
sg82
g270
sg75
(lp319
g68
(g89
g70
NtRp320
(dp321
g73
(dp322
g93
g94
ssg82
g316
sg75
(lp323
S'expires'
p324
asbag68
(g89
g70
NtRp325
(dp326
g73
(dp327
g100
g101
ssg82
g316
sg75
(lp328
S':'
asbag68
(g89
g70
NtRp329
(dp330
g73
(dp331
sg82
g316
sg75
(lp332
g68
(g69
g70
NtRp333
(dp334
g73
(dp335
g81
I3
ssg82
g329
sg75
(lp336
S''
asbasbasbag68
(g84
g70
NtRp337
(dp338
g73
(dp339
sg82
g270
sg75
(lp340
g68
(g89
g70
NtRp341
(dp342
g73
(dp343
g93
g94
ssg82
g337
sg75
(lp344
S'httponly'
p345
asbag68
(g89
g70
NtRp346
(dp347
g73
(dp348
g100
g101
ssg82
g337
sg75
(lp349
S':'
asbag68
(g89
g70
NtRp350
(dp351
g73
(dp352
sg82
g337
sg75
(lp353
g68
(g69
g70
NtRp354
(dp355
g73
(dp356
g81
I3
ssg82
g350
sg75
(lp357
S''
asbasbasbag68
(g84
g70
NtRp358
(dp359
g73
(dp360
sg82
g270
sg75
(lp361
g68
(g89
g70
NtRp362
(dp363
g73
(dp364
g93
g94
ssg82
g358
sg75
(lp365
S'max-age'
p366
asbag68
(g89
g70
NtRp367
(dp368
g73
(dp369
g100
g101
ssg82
g358
sg75
(lp370
S':'
asbag68
(g89
g70
NtRp371
(dp372
g73
(dp373
sg82
g358
sg75
(lp374
g68
(g69
g70
NtRp375
(dp376
g73
(dp377
g81
I3
ssg82
g371
sg75
(lp378
S''
asbasbasbag68
(g84
g70
NtRp379
(dp380
g73
(dp381
sg82
g270
sg75
(lp382
g68
(g89
g70
NtRp383
(dp384
g73
(dp385
g93
g94
ssg82
g379
sg75
(lp386
S'path'
p387
asbag68
(g89
g70
NtRp388
(dp389
g73
(dp390
g100
g101
ssg82
g379
sg75
(lp391
S':'
asbag68
(g89
g70
NtRp392
(dp393
g73
(dp394
sg82
g379
sg75
(lp395
g68
(g69
g70
NtRp396
(dp397
g73
(dp398
g81
I3
ssg82
g392
sg75
(lp399
S''
asbasbasbag68
(g84
g70
NtRp400
(dp401
g73
(dp402
sg82
g270
sg75
(lp403
g68
(g89
g70
NtRp404
(dp405
g73
(dp406
g93
g94
ssg82
g400
sg75
(lp407
S'secure'
p408
asbag68
(g89
g70
NtRp409
(dp410
g73
(dp411
g100
g101
ssg82
g400
sg75
(lp412
S':'
asbag68
(g89
g70
NtRp413
(dp414
g73
(dp415
sg82
g400
sg75
(lp416
g68
(g69
g70
NtRp417
(dp418
g73
(dp419
g81
I3
ssg82
g413
sg75
(lp420
S''
asbasbasbag68
(g84
g70
NtRp421
(dp422
g73
(dp423
sg82
g270
sg75
(lp424
g68
(g89
g70
NtRp425
(dp426
g73
(dp427
g93
g94
ssg82
g421
sg75
(lp428
S'version'
p429
asbag68
(g89
g70
NtRp430
(dp431
g73
(dp432
g100
g101
ssg82
g421
sg75
(lp433
S':'
asbag68
(g89
g70
NtRp434
(dp435
g73
(dp436
sg82
g421
sg75
(lp437
g68
(g69
g70
NtRp438
(dp439
g73
(dp440
g81
I3
ssg82
g434
sg75
(lp441
S''
asbasbasbasbasbasbasbag68
(g84
g70
NtRp442
(dp443
g73
(dp444
sg82
g245
sg75
(lp445
g68
(g89
g70
NtRp446
(dp447
g73
(dp448
g93
g94
ssg82
g442
sg75
(lp449
S'session_id_search_engine'
p450
asbag68
(g89
g70
NtRp451
(dp452
g73
(dp453
g100
g101
ssg82
g442
sg75
(lp454
S':'
asbag68
(g89
g70
NtRp455
(dp456
g73
(dp457
sg82
g442
sg75
(lp458
g68
(g69
g70
NtRp459
(dp460
g73
(dp461
g81
I4
ssg82
g455
sg75
(lp462
g68
(g77
g70
NtRp463
(dp464
g73
(dp465
g81
I3
ssg82
Nsg75
(lp466
g68
(g84
g70
NtRp467
(dp468
g73
(dp469
sg82
g463
sg75
(lp470
g68
(g89
g70
NtRp471
(dp472
g73
(dp473
g93
g94
ssg82
g467
sg75
(lp474
g282
asbag68
(g89
g70
NtRp475
(dp476
g73
(dp477
g100
g101
ssg82
g467
sg75
(lp478
S':'
asbag68
(g89
g70
NtRp479
(dp480
g73
(dp481
sg82
g467
sg75
(lp482
g68
(g69
g70
NtRp483
(dp484
g73
(dp485
g81
I3
ssg82
g479
sg75
(lp486
S''
asbasbasbag68
(g84
g70
NtRp487
(dp488
g73
(dp489
sg82
g463
sg75
(lp490
g68
(g89
g70
NtRp491
(dp492
g73
(dp493
g93
g94
ssg82
g487
sg75
(lp494
g303
asbag68
(g89
g70
NtRp495
(dp496
g73
(dp497
g100
g101
ssg82
g487
sg75
(lp498
S':'
asbag68
(g89
g70
NtRp499
(dp500
g73
(dp501
sg82
g487
sg75
(lp502
g68
(g69
g70
NtRp503
(dp504
g73
(dp505
g81
I3
ssg82
g499
sg75
(lp506
S''
asbasbasbag68
(g84
g70
NtRp507
(dp508
g73
(dp509
sg82
g463
sg75
(lp510
g68
(g89
g70
NtRp511
(dp512
g73
(dp513
g93
g94
ssg82
g507
sg75
(lp514
g324
asbag68
(g89
g70
NtRp515
(dp516
g73
(dp517
g100
g101
ssg82
g507
sg75
(lp518
S':'
asbag68
(g89
g70
NtRp519
(dp520
g73
(dp521
sg82
g507
sg75
(lp522
g68
(g69
g70
NtRp523
(dp524
g73
(dp525
g81
I3
ssg82
g519
sg75
(lp526
S''
asbasbasbag68
(g84
g70
NtRp527
(dp528
g73
(dp529
sg82
g463
sg75
(lp530
g68
(g89
g70
NtRp531
(dp532
g73
(dp533
g93
g94
ssg82
g527
sg75
(lp534
g345
asbag68
(g89
g70
NtRp535
(dp536
g73
(dp537
g100
g101
ssg82
g527
sg75
(lp538
S':'
asbag68
(g89
g70
NtRp539
(dp540
g73
(dp541
sg82
g527
sg75
(lp542
g68
(g69
g70
NtRp543
(dp544
g73
(dp545
g81
I3
ssg82
g539
sg75
(lp546
S''
asbasbasbag68
(g84
g70
NtRp547
(dp548
g73
(dp549
sg82
g463
sg75
(lp550
g68
(g89
g70
NtRp551
(dp552
g73
(dp553
g93
g94
ssg82
g547
sg75
(lp554
g366
asbag68
(g89
g70
NtRp555
(dp556
g73
(dp557
g100
g101
ssg82
g547
sg75
(lp558
S':'
asbag68
(g89
g70
NtRp559
(dp560
g73
(dp561
sg82
g547
sg75
(lp562
g68
(g69
g70
NtRp563
(dp564
g73
(dp565
g81
I3
ssg82
g559
sg75
(lp566
S''
asbasbasbag68
(g84
g70
NtRp567
(dp568
g73
(dp569
sg82
g463
sg75
(lp570
g68
(g89
g70
NtRp571
(dp572
g73
(dp573
g93
g94
ssg82
g567
sg75
(lp574
g387
asbag68
(g89
g70
NtRp575
(dp576
g73
(dp577
g100
g101
ssg82
g567
sg75
(lp578
S':'
asbag68
(g89
g70
NtRp579
(dp580
g73
(dp581
sg82
g567
sg75
(lp582
g68
(g69
g70
NtRp583
(dp584
g73
(dp585
g81
I3
ssg82
g579
sg75
(lp586
S''
asbasbasbag68
(g84
g70
NtRp587
(dp588
g73
(dp589
sg82
g463
sg75
(lp590
g68
(g89
g70
NtRp591
(dp592
g73
(dp593
g93
g94
ssg82
g587
sg75
(lp594
g408
asbag68
(g89
g70
NtRp595
(dp596
g73
(dp597
g100
g101
ssg82
g587
sg75
(lp598
S':'
asbag68
(g89
g70
NtRp599
(dp600
g73
(dp601
sg82
g587
sg75
(lp602
g68
(g69
g70
NtRp603
(dp604
g73
(dp605
g81
I3
ssg82
g599
sg75
(lp606
S''
asbasbasbag68
(g84
g70
NtRp607
(dp608
g73
(dp609
sg82
g463
sg75
(lp610
g68
(g89
g70
NtRp611
(dp612
g73
(dp613
g93
g94
ssg82
g607
sg75
(lp614
g429
asbag68
(g89
g70
NtRp615
(dp616
g73
(dp617
g100
g101
ssg82
g607
sg75
(lp618
S':'
asbag68
(g89
g70
NtRp619
(dp620
g73
(dp621
sg82
g607
sg75
(lp622
g68
(g69
g70
NtRp623
(dp624
g73
(dp625
g81
I3
ssg82
g619
sg75
(lp626
S''
asbasbasbasbasbasbasbag68
(g84
g70
NtRp627
(dp628
g73
(dp629
sg82
g245
sg75
(lp630
g68
(g89
g70
NtRp631
(dp632
g73
(dp633
g93
g94
ssg82
g627
sg75
(lp634
S'session_id_welcome'
p635
asbag68
(g89
g70
NtRp636
(dp637
g73
(dp638
g100
g101
ssg82
g627
sg75
(lp639
S':'
asbag68
(g89
g70
NtRp640
(dp641
g73
(dp642
sg82
g627
sg75
(lp643
g68
(g69
g70
NtRp644
(dp645
g73
(dp646
g81
I4
ssg82
g640
sg75
(lp647
g68
(g77
g70
NtRp648
(dp649
g73
(dp650
g81
I3
ssg82
Nsg75
(lp651
g68
(g84
g70
NtRp652
(dp653
g73
(dp654
sg82
g648
sg75
(lp655
g68
(g89
g70
NtRp656
(dp657
g73
(dp658
g93
g94
ssg82
g652
sg75
(lp659
g282
asbag68
(g89
g70
NtRp660
(dp661
g73
(dp662
g100
g101
ssg82
g652
sg75
(lp663
S':'
asbag68
(g89
g70
NtRp664
(dp665
g73
(dp666
sg82
g652
sg75
(lp667
g68
(g69
g70
NtRp668
(dp669
g73
(dp670
g81
I3
ssg82
g664
sg75
(lp671
S''
asbasbasbag68
(g84
g70
NtRp672
(dp673
g73
(dp674
sg82
g648
sg75
(lp675
g68
(g89
g70
NtRp676
(dp677
g73
(dp678
g93
g94
ssg82
g672
sg75
(lp679
g303
asbag68
(g89
g70
NtRp680
(dp681
g73
(dp682
g100
g101
ssg82
g672
sg75
(lp683
S':'
asbag68
(g89
g70
NtRp684
(dp685
g73
(dp686
sg82
g672
sg75
(lp687
g68
(g69
g70
NtRp688
(dp689
g73
(dp690
g81
I3
ssg82
g684
sg75
(lp691
S''
asbasbasbag68
(g84
g70
NtRp692
(dp693
g73
(dp694
sg82
g648
sg75
(lp695
g68
(g89
g70
NtRp696
(dp697
g73
(dp698
g93
g94
ssg82
g692
sg75
(lp699
g324
asbag68
(g89
g70
NtRp700
(dp701
g73
(dp702
g100
g101
ssg82
g692
sg75
(lp703
S':'
asbag68
(g89
g70
NtRp704
(dp705
g73
(dp706
sg82
g692
sg75
(lp707
g68
(g69
g70
NtRp708
(dp709
g73
(dp710
g81
I3
ssg82
g704
sg75
(lp711
S''
asbasbasbag68
(g84
g70
NtRp712
(dp713
g73
(dp714
sg82
g648
sg75
(lp715
g68
(g89
g70
NtRp716
(dp717
g73
(dp718
g93
g94
ssg82
g712
sg75
(lp719
g345
asbag68
(g89
g70
NtRp720
(dp721
g73
(dp722
g100
g101
ssg82
g712
sg75
(lp723
S':'
asbag68
(g89
g70
NtRp724
(dp725
g73
(dp726
sg82
g712
sg75
(lp727
g68
(g69
g70
NtRp728
(dp729
g73
(dp730
g81
I3
ssg82
g724
sg75
(lp731
S''
asbasbasbag68
(g84
g70
NtRp732
(dp733
g73
(dp734
sg82
g648
sg75
(lp735
g68
(g89
g70
NtRp736
(dp737
g73
(dp738
g93
g94
ssg82
g732
sg75
(lp739
g366
asbag68
(g89
g70
NtRp740
(dp741
g73
(dp742
g100
g101
ssg82
g732
sg75
(lp743
S':'
asbag68
(g89
g70
NtRp744
(dp745
g73
(dp746
sg82
g732
sg75
(lp747
g68
(g69
g70
NtRp748
(dp749
g73
(dp750
g81
I3
ssg82
g744
sg75
(lp751
S''
asbasbasbag68
(g84
g70
NtRp752
(dp753
g73
(dp754
sg82
g648
sg75
(lp755
g68
(g89
g70
NtRp756
(dp757
g73
(dp758
g93
g94
ssg82
g752
sg75
(lp759
g387
asbag68
(g89
g70
NtRp760
(dp761
g73
(dp762
g100
g101
ssg82
g752
sg75
(lp763
S':'
asbag68
(g89
g70
NtRp764
(dp765
g73
(dp766
sg82
g752
sg75
(lp767
g68
(g69
g70
NtRp768
(dp769
g73
(dp770
g81
I3
ssg82
g764
sg75
(lp771
S''
asbasbasbag68
(g84
g70
NtRp772
(dp773
g73
(dp774
sg82
g648
sg75
(lp775
g68
(g89
g70
NtRp776
(dp777
g73
(dp778
g93
g94
ssg82
g772
sg75
(lp779
g408
asbag68
(g89
g70
NtRp780
(dp781
g73
(dp782
g100
g101
ssg82
g772
sg75
(lp783
S':'
asbag68
(g89
g70
NtRp784
(dp785
g73
(dp786
sg82
g772
sg75
(lp787
g68
(g69
g70
NtRp788
(dp789
g73
(dp790
g81
I3
ssg82
g784
sg75
(lp791
S''
asbasbasbag68
(g84
g70
NtRp792
(dp793
g73
(dp794
sg82
g648
sg75
(lp795
g68
(g89
g70
NtRp796
(dp797
g73
(dp798
g93
g94
ssg82
g792
sg75
(lp799
g429
asbag68
(g89
g70
NtRp800
(dp801
g73
(dp802
g100
g101
ssg82
g792
sg75
(lp803
S':'
asbag68
(g89
g70
NtRp804
(dp805
g73
(dp806
sg82
g792
sg75
(lp807
g68
(g69
g70
NtRp808
(dp809
g73
(dp810
g81
I3
ssg82
g804
sg75
(lp811
S''
asbasbasbasbasbasbasbasbasbasbasbag68
(g84
g70
NtRp812
(dp813
g73
(dp814
sg82
g78
sg75
(lp815
g68
(g89
g70
NtRp816
(dp817
g73
(dp818
g93
g94
ssg82
g812
sg75
(lp819
S'env'
p820
asbag68
(g89
g70
NtRp821
(dp822
g73
(dp823
g100
g101
ssg82
g812
sg75
(lp824
S':'
asbag68
(g89
g70
NtRp825
(dp826
g73
(dp827
sg82
g812
sg75
(lp828
g68
(g69
g70
NtRp829
(dp830
g73
(dp831
g81
I5
ssg82
g825
sg75
(lp832
g68
(g77
g70
NtRp833
(dp834
g73
(dp835
g81
I4
ssg82
Nsg75
(lp836
g68
(g84
g70
NtRp837
(dp838
g73
(dp839
sg82
g833
sg75
(lp840
g68
(g89
g70
NtRp841
(dp842
g73
(dp843
g93
g94
ssg82
g837
sg75
(lp844
S'app_folders'
p845
asbag68
(g89
g70
NtRp846
(dp847
g73
(dp848
g100
g101
ssg82
g837
sg75
(lp849
S':'
asbag68
(g89
g70
NtRp850
(dp851
g73
(dp852
sg82
g837
sg75
(lp853
g68
(g69
g70
NtRp854
(dp855
g73
(dp856
g81
I4
ssg82
g850
sg75
(lp857
S"set(['/home/shubham/web2py/applications/Search_Engine/', '/home/shubham/web2py/applications/admin/', '/home/shubham/web2py/applications/welcome/'])"
p858
asbasbasbag68
(g84
g70
NtRp859
(dp860
g73
(dp861
sg82
g833
sg75
(lp862
g68
(g89
g70
NtRp863
(dp864
g73
(dp865
g93
g94
ssg82
g859
sg75
(lp866
S'applications_parent'
p867
asbag68
(g89
g70
NtRp868
(dp869
g73
(dp870
g100
g101
ssg82
g859
sg75
(lp871
S':'
asbag68
(g89
g70
NtRp872
(dp873
g73
(dp874
sg82
g859
sg75
(lp875
g68
(g69
g70
NtRp876
(dp877
g73
(dp878
g81
I4
ssg82
g872
sg75
(lp879
S'/home/shubham/web2py'
p880
asbasbasbag68
(g84
g70
NtRp881
(dp882
g73
(dp883
sg82
g833
sg75
(lp884
g68
(g89
g70
NtRp885
(dp886
g73
(dp887
g93
g94
ssg82
g881
sg75
(lp888
S'cmd_args'
p889
asbag68
(g89
g70
NtRp890
(dp891
g73
(dp892
g100
g101
ssg82
g881
sg75
(lp893
S':'
asbag68
(g89
g70
NtRp894
(dp895
g73
(dp896
sg82
g881
sg75
(lp897
g68
(g69
g70
NtRp898
(dp899
g73
(dp900
g81
I4
ssg82
g894
sg75
(lp901
g68
(g77
g70
NtRp902
(dp903
g73
(dp904
g81
I3
ssg82
Nsg75
(lp905
sbasbasbasbag68
(g84
g70
NtRp906
(dp907
g73
(dp908
sg82
g833
sg75
(lp909
g68
(g89
g70
NtRp910
(dp911
g73
(dp912
g93
g94
ssg82
g906
sg75
(lp913
S'cmd_options'
p914
asbag68
(g89
g70
NtRp915
(dp916
g73
(dp917
g100
g101
ssg82
g906
sg75
(lp918
S':'
asbag68
(g89
g70
NtRp919
(dp920
g73
(dp921
sg82
g906
sg75
(lp922
g68
(g69
g70
NtRp923
(dp924
g73
(dp925
g81
I4
ssg82
g919
sg75
(lp926
S"<Values at 0x7fbe0ab47758: {'verbose': False, 'ip': '127.0.0.1', 'shutdown_timeout': 5, 'taskbar': False, 'nocron': False, 'pid_filename': 'httpserver.pid', 'maxthreads': None, 'softcron': False, 'server_name': 'shubham-HCL-Desktop', 'bpython': False, 'nogui': False, 'port': 8000, 'extcron': False, 'debuglevel': 30, 'test': None, 'folder': '/home/shubham/web2py', 'config': '', 'import_models': False, 'winservice': '', 'shell': None, 'run': '', 'log_filename': 'httpserver.log', 'args': [''], 'socket_timeout': 5, 'ssl_ca_certificate': None, 'scheduler': None, 'profiler_filename': None, 'ssl_private_key': '', 'password': '<ask>', 'request_queue_size': 5, 'ssl_certificate': '', 'cronjob': False, 'numthreads': None, 'quiet': False, 'interfaces': None, 'minthreads': None, 'timeout': 10, 'plain': False, 'nobanner': False}>"
p927
asbasbasbag68
(g84
g70
NtRp928
(dp929
g73
(dp930
sg82
g833
sg75
(lp931
g68
(g89
g70
NtRp932
(dp933
g73
(dp934
g93
g94
ssg82
g928
sg75
(lp935
S'db_sessions'
p936
asbag68
(g89
g70
NtRp937
(dp938
g73
(dp939
g100
g101
ssg82
g928
sg75
(lp940
S':'
asbag68
(g89
g70
NtRp941
(dp942
g73
(dp943
sg82
g928
sg75
(lp944
g68
(g69
g70
NtRp945
(dp946
g73
(dp947
g81
I4
ssg82
g941
sg75
(lp948
S'set([])'
p949
asbasbasbag68
(g84
g70
NtRp950
(dp951
g73
(dp952
sg82
g833
sg75
(lp953
g68
(g89
g70
NtRp954
(dp955
g73
(dp956
g93
g94
ssg82
g950
sg75
(lp957
S'debugging'
p958
asbag68
(g89
g70
NtRp959
(dp960
g73
(dp961
g100
g101
ssg82
g950
sg75
(lp962
S':'
asbag68
(g89
g70
NtRp963
(dp964
g73
(dp965
sg82
g950
sg75
(lp966
g68
(g69
g70
NtRp967
(dp968
g73
(dp969
g81
I4
ssg82
g963
sg75
(lp970
g111
asbasbasbag68
(g84
g70
NtRp971
(dp972
g73
(dp973
sg82
g833
sg75
(lp974
g68
(g89
g70
NtRp975
(dp976
g73
(dp977
g93
g94
ssg82
g971
sg75
(lp978
S'gluon_parent'
p979
asbag68
(g89
g70
NtRp980
(dp981
g73
(dp982
g100
g101
ssg82
g971
sg75
(lp983
S':'
asbag68
(g89
g70
NtRp984
(dp985
g73
(dp986
sg82
g971
sg75
(lp987
g68
(g69
g70
NtRp988
(dp989
g73
(dp990
g81
I4
ssg82
g984
sg75
(lp991
S'/usr/share/web2py'
p992
asbasbasbag68
(g84
g70
NtRp993
(dp994
g73
(dp995
sg82
g833
sg75
(lp996
g68
(g89
g70
NtRp997
(dp998
g73
(dp999
g93
g94
ssg82
g993
sg75
(lp1000
S'http_accept'
p1001
asbag68
(g89
g70
NtRp1002
(dp1003
g73
(dp1004
g100
g101
ssg82
g993
sg75
(lp1005
S':'
asbag68
(g89
g70
NtRp1006
(dp1007
g73
(dp1008
sg82
g993
sg75
(lp1009
g68
(g69
g70
NtRp1010
(dp1011
g73
(dp1012
g81
I4
ssg82
g1006
sg75
(lp1013
S'text/html,application/xhtml+xml,application/xml;q=0.9,image/webp,*/*;q=0.8'
p1014
asbasbasbag68
(g84
g70
NtRp1015
(dp1016
g73
(dp1017
sg82
g833
sg75
(lp1018
g68
(g89
g70
NtRp1019
(dp1020
g73
(dp1021
g93
g94
ssg82
g1015
sg75
(lp1022
S'http_accept_encoding'
p1023
asbag68
(g89
g70
NtRp1024
(dp1025
g73
(dp1026
g100
g101
ssg82
g1015
sg75
(lp1027
S':'
asbag68
(g89
g70
NtRp1028
(dp1029
g73
(dp1030
sg82
g1015
sg75
(lp1031
g68
(g69
g70
NtRp1032
(dp1033
g73
(dp1034
g81
I4
ssg82
g1028
sg75
(lp1035
S'gzip, deflate, sdch'
p1036
asbasbasbag68
(g84
g70
NtRp1037
(dp1038
g73
(dp1039
sg82
g833
sg75
(lp1040
g68
(g89
g70
NtRp1041
(dp1042
g73
(dp1043
g93
g94
ssg82
g1037
sg75
(lp1044
S'http_accept_language'
p1045
asbag68
(g89
g70
NtRp1046
(dp1047
g73
(dp1048
g100
g101
ssg82
g1037
sg75
(lp1049
S':'
asbag68
(g89
g70
NtRp1050
(dp1051
g73
(dp1052
sg82
g1037
sg75
(lp1053
g68
(g69
g70
NtRp1054
(dp1055
g73
(dp1056
g81
I4
ssg82
g1050
sg75
(lp1057
S'en-US,en;q=0.8'
p1058
asbasbasbag68
(g84
g70
NtRp1059
(dp1060
g73
(dp1061
sg82
g833
sg75
(lp1062
g68
(g89
g70
NtRp1063
(dp1064
g73
(dp1065
g93
g94
ssg82
g1059
sg75
(lp1066
S'http_cache_control'
p1067
asbag68
(g89
g70
NtRp1068
(dp1069
g73
(dp1070
g100
g101
ssg82
g1059
sg75
(lp1071
S':'
asbag68
(g89
g70
NtRp1072
(dp1073
g73
(dp1074
sg82
g1059
sg75
(lp1075
g68
(g69
g70
NtRp1076
(dp1077
g73
(dp1078
g81
I4
ssg82
g1072
sg75
(lp1079
S'max-age=0'
p1080
asbasbasbag68
(g84
g70
NtRp1081
(dp1082
g73
(dp1083
sg82
g833
sg75
(lp1084
g68
(g89
g70
NtRp1085
(dp1086
g73
(dp1087
g93
g94
ssg82
g1081
sg75
(lp1088
S'http_connection'
p1089
asbag68
(g89
g70
NtRp1090
(dp1091
g73
(dp1092
g100
g101
ssg82
g1081
sg75
(lp1093
S':'
asbag68
(g89
g70
NtRp1094
(dp1095
g73
(dp1096
sg82
g1081
sg75
(lp1097
g68
(g69
g70
NtRp1098
(dp1099
g73
(dp1100
g81
I4
ssg82
g1094
sg75
(lp1101
S'keep-alive'
p1102
asbasbasbag68
(g84
g70
NtRp1103
(dp1104
g73
(dp1105
sg82
g833
sg75
(lp1106
g68
(g89
g70
NtRp1107
(dp1108
g73
(dp1109
g93
g94
ssg82
g1103
sg75
(lp1110
S'http_cookie'
p1111
asbag68
(g89
g70
NtRp1112
(dp1113
g73
(dp1114
g100
g101
ssg82
g1103
sg75
(lp1115
S':'
asbag68
(g89
g70
NtRp1116
(dp1117
g73
(dp1118
sg82
g1103
sg75
(lp1119
g68
(g69
g70
NtRp1120
(dp1121
g73
(dp1122
g81
I4
ssg82
g1116
sg75
(lp1123
S'session_id_search_engine=127.0.0.1-a8b3258c-8c92-470f-be04-94c1da5429bc; session_id_welcome=127.0.0.1-5c54e416-1ae8-44d4-996d-e19b6ec186af; session_id_admin=127.0.0.1-65509806-aecc-42bc-a630-65074a660df8'
p1124
asbasbasbag68
(g84
g70
NtRp1125
(dp1126
g73
(dp1127
sg82
g833
sg75
(lp1128
g68
(g89
g70
NtRp1129
(dp1130
g73
(dp1131
g93
g94
ssg82
g1125
sg75
(lp1132
S'http_host'
p1133
asbag68
(g89
g70
NtRp1134
(dp1135
g73
(dp1136
g100
g101
ssg82
g1125
sg75
(lp1137
S':'
asbag68
(g89
g70
NtRp1138
(dp1139
g73
(dp1140
sg82
g1125
sg75
(lp1141
g68
(g69
g70
NtRp1142
(dp1143
g73
(dp1144
g81
I4
ssg82
g1138
sg75
(lp1145
S'127.0.0.1:8000'
p1146
asbasbasbag68
(g84
g70
NtRp1147
(dp1148
g73
(dp1149
sg82
g833
sg75
(lp1150
g68
(g89
g70
NtRp1151
(dp1152
g73
(dp1153
g93
g94
ssg82
g1147
sg75
(lp1154
S'http_upgrade_insecure_requests'
p1155
asbag68
(g89
g70
NtRp1156
(dp1157
g73
(dp1158
g100
g101
ssg82
g1147
sg75
(lp1159
S':'
asbag68
(g89
g70
NtRp1160
(dp1161
g73
(dp1162
sg82
g1147
sg75
(lp1163
g68
(g69
g70
NtRp1164
(dp1165
g73
(dp1166
g81
I4
ssg82
g1160
sg75
(lp1167
S'1'
asbasbasbag68
(g84
g70
NtRp1168
(dp1169
g73
(dp1170
sg82
g833
sg75
(lp1171
g68
(g89
g70
NtRp1172
(dp1173
g73
(dp1174
g93
g94
ssg82
g1168
sg75
(lp1175
S'http_user_agent'
p1176
asbag68
(g89
g70
NtRp1177
(dp1178
g73
(dp1179
g100
g101
ssg82
g1168
sg75
(lp1180
S':'
asbag68
(g89
g70
NtRp1181
(dp1182
g73
(dp1183
sg82
g1168
sg75
(lp1184
g68
(g69
g70
NtRp1185
(dp1186
g73
(dp1187
g81
I4
ssg82
g1181
sg75
(lp1188
S'Mozilla/5.0 (X11; Linux x86_64) AppleWebKit/537.36 (KHTML, like Gecko) Chrome/44.0.2403.157 Safari/537.36'
p1189
asbasbasbag68
(g84
g70
NtRp1190
(dp1191
g73
(dp1192
sg82
g833
sg75
(lp1193
g68
(g89
g70
NtRp1194
(dp1195
g73
(dp1196
g93
g94
ssg82
g1190
sg75
(lp1197
S'is_jython'
p1198
asbag68
(g89
g70
NtRp1199
(dp1200
g73
(dp1201
g100
g101
ssg82
g1190
sg75
(lp1202
S':'
asbag68
(g89
g70
NtRp1203
(dp1204
g73
(dp1205
sg82
g1190
sg75
(lp1206
g68
(g69
g70
NtRp1207
(dp1208
g73
(dp1209
g81
I4
ssg82
g1203
sg75
(lp1210
g111
asbasbasbag68
(g84
g70
NtRp1211
(dp1212
g73
(dp1213
sg82
g833
sg75
(lp1214
g68
(g89
g70
NtRp1215
(dp1216
g73
(dp1217
g93
g94
ssg82
g1211
sg75
(lp1218
S'is_pypy'
p1219
asbag68
(g89
g70
NtRp1220
(dp1221
g73
(dp1222
g100
g101
ssg82
g1211
sg75
(lp1223
S':'
asbag68
(g89
g70
NtRp1224
(dp1225
g73
(dp1226
sg82
g1211
sg75
(lp1227
g68
(g69
g70
NtRp1228
(dp1229
g73
(dp1230
g81
I4
ssg82
g1224
sg75
(lp1231
g111
asbasbasbag68
(g84
g70
NtRp1232
(dp1233
g73
(dp1234
sg82
g833
sg75
(lp1235
g68
(g89
g70
NtRp1236
(dp1237
g73
(dp1238
g93
g94
ssg82
g1232
sg75
(lp1239
S'path_info'
p1240
asbag68
(g89
g70
NtRp1241
(dp1242
g73
(dp1243
g100
g101
ssg82
g1232
sg75
(lp1244
S':'
asbag68
(g89
g70
NtRp1245
(dp1246
g73
(dp1247
sg82
g1232
sg75
(lp1248
g68
(g69
g70
NtRp1249
(dp1250
g73
(dp1251
g81
I4
ssg82
g1245
sg75
(lp1252
S'/Search_Engine/search'
p1253
asbasbasbag68
(g84
g70
NtRp1254
(dp1255
g73
(dp1256
sg82
g833
sg75
(lp1257
g68
(g89
g70
NtRp1258
(dp1259
g73
(dp1260
g93
g94
ssg82
g1254
sg75
(lp1261
S'query_string'
p1262
asbag68
(g89
g70
NtRp1263
(dp1264
g73
(dp1265
g100
g101
ssg82
g1254
sg75
(lp1266
S':'
asbag68
(g89
g70
NtRp1267
(dp1268
g73
(dp1269
sg82
g1254
sg75
(lp1270
g68
(g69
g70
NtRp1271
(dp1272
g73
(dp1273
g81
I4
ssg82
g1267
sg75
(lp1274
S''
asbasbasbag68
(g84
g70
NtRp1275
(dp1276
g73
(dp1277
sg82
g833
sg75
(lp1278
g68
(g89
g70
NtRp1279
(dp1280
g73
(dp1281
g93
g94
ssg82
g1275
sg75
(lp1282
S'remote_addr'
p1283
asbag68
(g89
g70
NtRp1284
(dp1285
g73
(dp1286
g100
g101
ssg82
g1275
sg75
(lp1287
S':'
asbag68
(g89
g70
NtRp1288
(dp1289
g73
(dp1290
sg82
g1275
sg75
(lp1291
g68
(g69
g70
NtRp1292
(dp1293
g73
(dp1294
g81
I4
ssg82
g1288
sg75
(lp1295
g201
asbasbasbag68
(g84
g70
NtRp1296
(dp1297
g73
(dp1298
sg82
g833
sg75
(lp1299
g68
(g89
g70
NtRp1300
(dp1301
g73
(dp1302
g93
g94
ssg82
g1296
sg75
(lp1303
S'remote_port'
p1304
asbag68
(g89
g70
NtRp1305
(dp1306
g73
(dp1307
g100
g101
ssg82
g1296
sg75
(lp1308
S':'
asbag68
(g89
g70
NtRp1309
(dp1310
g73
(dp1311
sg82
g1296
sg75
(lp1312
g68
(g69
g70
NtRp1313
(dp1314
g73
(dp1315
g81
I4
ssg82
g1309
sg75
(lp1316
S'45310'
p1317
asbasbasbag68
(g84
g70
NtRp1318
(dp1319
g73
(dp1320
sg82
g833
sg75
(lp1321
g68
(g89
g70
NtRp1322
(dp1323
g73
(dp1324
g93
g94
ssg82
g1318
sg75
(lp1325
S'request_method'
p1326
asbag68
(g89
g70
NtRp1327
(dp1328
g73
(dp1329
g100
g101
ssg82
g1318
sg75
(lp1330
S':'
asbag68
(g89
g70
NtRp1331
(dp1332
g73
(dp1333
sg82
g1318
sg75
(lp1334
g68
(g69
g70
NtRp1335
(dp1336
g73
(dp1337
g81
I4
ssg82
g1331
sg75
(lp1338
S'GET'
p1339
asbasbasbag68
(g84
g70
NtRp1340
(dp1341
g73
(dp1342
sg82
g833
sg75
(lp1343
g68
(g89
g70
NtRp1344
(dp1345
g73
(dp1346
g93
g94
ssg82
g1340
sg75
(lp1347
S'script_name'
p1348
asbag68
(g89
g70
NtRp1349
(dp1350
g73
(dp1351
g100
g101
ssg82
g1340
sg75
(lp1352
S':'
asbag68
(g89
g70
NtRp1353
(dp1354
g73
(dp1355
sg82
g1340
sg75
(lp1356
g68
(g69
g70
NtRp1357
(dp1358
g73
(dp1359
g81
I4
ssg82
g1353
sg75
(lp1360
S''
asbasbasbag68
(g84
g70
NtRp1361
(dp1362
g73
(dp1363
sg82
g833
sg75
(lp1364
g68
(g89
g70
NtRp1365
(dp1366
g73
(dp1367
g93
g94
ssg82
g1361
sg75
(lp1368
S'server_name'
p1369
asbag68
(g89
g70
NtRp1370
(dp1371
g73
(dp1372
g100
g101
ssg82
g1361
sg75
(lp1373
S':'
asbag68
(g89
g70
NtRp1374
(dp1375
g73
(dp1376
sg82
g1361
sg75
(lp1377
g68
(g69
g70
NtRp1378
(dp1379
g73
(dp1380
g81
I4
ssg82
g1374
sg75
(lp1381
S'shubham-HCL-Desktop'
p1382
asbasbasbag68
(g84
g70
NtRp1383
(dp1384
g73
(dp1385
sg82
g833
sg75
(lp1386
g68
(g89
g70
NtRp1387
(dp1388
g73
(dp1389
g93
g94
ssg82
g1383
sg75
(lp1390
S'server_port'
p1391
asbag68
(g89
g70
NtRp1392
(dp1393
g73
(dp1394
g100
g101
ssg82
g1383
sg75
(lp1395
S':'
asbag68
(g89
g70
NtRp1396
(dp1397
g73
(dp1398
sg82
g1383
sg75
(lp1399
g68
(g69
g70
NtRp1400
(dp1401
g73
(dp1402
g81
I4
ssg82
g1396
sg75
(lp1403
S'8000'
p1404
asbasbasbag68
(g84
g70
NtRp1405
(dp1406
g73
(dp1407
sg82
g833
sg75
(lp1408
g68
(g89
g70
NtRp1409
(dp1410
g73
(dp1411
g93
g94
ssg82
g1405
sg75
(lp1412
S'server_protocol'
p1413
asbag68
(g89
g70
NtRp1414
(dp1415
g73
(dp1416
g100
g101
ssg82
g1405
sg75
(lp1417
S':'
asbag68
(g89
g70
NtRp1418
(dp1419
g73
(dp1420
sg82
g1405
sg75
(lp1421
g68
(g69
g70
NtRp1422
(dp1423
g73
(dp1424
g81
I4
ssg82
g1418
sg75
(lp1425
S'HTTP/1.1'
p1426
asbasbasbag68
(g84
g70
NtRp1427
(dp1428
g73
(dp1429
sg82
g833
sg75
(lp1430
g68
(g89
g70
NtRp1431
(dp1432
g73
(dp1433
g93
g94
ssg82
g1427
sg75
(lp1434
S'server_software'
p1435
asbag68
(g89
g70
NtRp1436
(dp1437
g73
(dp1438
g100
g101
ssg82
g1427
sg75
(lp1439
S':'
asbag68
(g89
g70
NtRp1440
(dp1441
g73
(dp1442
sg82
g1427
sg75
(lp1443
g68
(g69
g70
NtRp1444
(dp1445
g73
(dp1446
g81
I4
ssg82
g1440
sg75
(lp1447
S'Rocket 1.2.4'
p1448
asbasbasbag68
(g84
g70
NtRp1449
(dp1450
g73
(dp1451
sg82
g833
sg75
(lp1452
g68
(g89
g70
NtRp1453
(dp1454
g73
(dp1455
g93
g94
ssg82
g1449
sg75
(lp1456
S'web2py_crontype'
p1457
asbag68
(g89
g70
NtRp1458
(dp1459
g73
(dp1460
g100
g101
ssg82
g1449
sg75
(lp1461
S':'
asbag68
(g89
g70
NtRp1462
(dp1463
g73
(dp1464
sg82
g1449
sg75
(lp1465
g68
(g69
g70
NtRp1466
(dp1467
g73
(dp1468
g81
I4
ssg82
g1462
sg75
(lp1469
S'hard'
p1470
asbasbasbag68
(g84
g70
NtRp1471
(dp1472
g73
(dp1473
sg82
g833
sg75
(lp1474
g68
(g89
g70
NtRp1475
(dp1476
g73
(dp1477
g93
g94
ssg82
g1471
sg75
(lp1478
S'web2py_path'
p1479
asbag68
(g89
g70
NtRp1480
(dp1481
g73
(dp1482
g100
g101
ssg82
g1471
sg75
(lp1483
S':'
asbag68
(g89
g70
NtRp1484
(dp1485
g73
(dp1486
sg82
g1471
sg75
(lp1487
g68
(g69
g70
NtRp1488
(dp1489
g73
(dp1490
g81
I4
ssg82
g1484
sg75
(lp1491
g880
asbasbasbag68
(g84
g70
NtRp1492
(dp1493
g73
(dp1494
sg82
g833
sg75
(lp1495
g68
(g89
g70
NtRp1496
(dp1497
g73
(dp1498
g93
g94
ssg82
g1492
sg75
(lp1499
S'web2py_version'
p1500
asbag68
(g89
g70
NtRp1501
(dp1502
g73
(dp1503
g100
g101
ssg82
g1492
sg75
(lp1504
S':'
asbag68
(g89
g70
NtRp1505
(dp1506
g73
(dp1507
sg82
g1492
sg75
(lp1508
g68
(g69
g70
NtRp1509
(dp1510
g73
(dp1511
g81
I4
ssg82
g1505
sg75
(lp1512
g68
(g77
g70
NtRp1513
(dp1514
g73
(dp1515
g81
I3
ssg82
Nsg75
(lp1516
g68
(g84
g70
NtRp1517
(dp1518
g73
(dp1519
sg82
g1513
sg75
(lp1520
g68
(g89
g70
NtRp1521
(dp1522
g73
(dp1523
sg82
g1517
sg75
(lp1524
g68
(g69
g70
NtRp1525
(dp1526
g73
(dp1527
g81
I3
ssg82
g1521
sg75
(lp1528
S'1'
asbasbasbag68
(g84
g70
NtRp1529
(dp1530
g73
(dp1531
sg82
g1513
sg75
(lp1532
g68
(g89
g70
NtRp1533
(dp1534
g73
(dp1535
sg82
g1529
sg75
(lp1536
g68
(g69
g70
NtRp1537
(dp1538
g73
(dp1539
g81
I3
ssg82
g1533
sg75
(lp1540
S'99'
p1541
asbasbasbag68
(g84
g70
NtRp1542
(dp1543
g73
(dp1544
sg82
g1513
sg75
(lp1545
g68
(g89
g70
NtRp1546
(dp1547
g73
(dp1548
sg82
g1542
sg75
(lp1549
g68
(g69
g70
NtRp1550
(dp1551
g73
(dp1552
g81
I3
ssg82
g1546
sg75
(lp1553
S'7'
asbasbasbag68
(g84
g70
NtRp1554
(dp1555
g73
(dp1556
sg82
g1513
sg75
(lp1557
g68
(g89
g70
NtRp1558
(dp1559
g73
(dp1560
sg82
g1554
sg75
(lp1561
g68
(g69
g70
NtRp1562
(dp1563
g73
(dp1564
g81
I3
ssg82
g1558
sg75
(lp1565
S'datetime.datetime(2012, 3, 4, 22, 12, 8)'
p1566
asbasbasbag68
(g84
g70
NtRp1567
(dp1568
g73
(dp1569
sg82
g1513
sg75
(lp1570
g68
(g89
g70
NtRp1571
(dp1572
g73
(dp1573
sg82
g1567
sg75
(lp1574
g68
(g69
g70
NtRp1575
(dp1576
g73
(dp1577
g81
I3
ssg82
g1571
sg75
(lp1578
S'stable'
p1579
asbasbasbasbasbasbasbag68
(g84
g70
NtRp1580
(dp1581
g73
(dp1582
sg82
g833
sg75
(lp1583
g68
(g89
g70
NtRp1584
(dp1585
g73
(dp1586
g93
g94
ssg82
g1580
sg75
(lp1587
S'wsgi_errors'
p1588
asbag68
(g89
g70
NtRp1589
(dp1590
g73
(dp1591
g100
g101
ssg82
g1580
sg75
(lp1592
S':'
asbag68
(g89
g70
NtRp1593
(dp1594
g73
(dp1595
sg82
g1580
sg75
(lp1596
g68
(g69
g70
NtRp1597
(dp1598
g73
(dp1599
g81
I4
ssg82
g1593
sg75
(lp1600
S"<open file '<stderr>', mode 'w' at 0x7fbe0c85e1e0>"
p1601
asbasbasbag68
(g84
g70
NtRp1602
(dp1603
g73
(dp1604
sg82
g833
sg75
(lp1605
g68
(g89
g70
NtRp1606
(dp1607
g73
(dp1608
g93
g94
ssg82
g1602
sg75
(lp1609
S'wsgi_file_wrapper'
p1610
asbag68
(g89
g70
NtRp1611
(dp1612
g73
(dp1613
g100
g101
ssg82
g1602
sg75
(lp1614
S':'
asbag68
(g89
g70
NtRp1615
(dp1616
g73
(dp1617
sg82
g1602
sg75
(lp1618
g68
(g69
g70
NtRp1619
(dp1620
g73
(dp1621
g81
I4
ssg82
g1615
sg75
(lp1622
S'<class wsgiref.util.FileWrapper at 0x7fbe082e6598>'
p1623
asbasbasbag68
(g84
g70
NtRp1624
(dp1625
g73
(dp1626
sg82
g833
sg75
(lp1627
g68
(g89
g70
NtRp1628
(dp1629
g73
(dp1630
g93
g94
ssg82
g1624
sg75
(lp1631
S'wsgi_input'
p1632
asbag68
(g89
g70
NtRp1633
(dp1634
g73
(dp1635
g100
g101
ssg82
g1624
sg75
(lp1636
S':'
asbag68
(g89
g70
NtRp1637
(dp1638
g73
(dp1639
sg82
g1624
sg75
(lp1640
g68
(g69
g70
NtRp1641
(dp1642
g73
(dp1643
g81
I4
ssg82
g1637
sg75
(lp1644
S'<socket._fileobject object at 0x7fbdb3486650>'
p1645
asbasbasbag68
(g84
g70
NtRp1646
(dp1647
g73
(dp1648
sg82
g833
sg75
(lp1649
g68
(g89
g70
NtRp1650
(dp1651
g73
(dp1652
g93
g94
ssg82
g1646
sg75
(lp1653
S'wsgi_multiprocess'
p1654
asbag68
(g89
g70
NtRp1655
(dp1656
g73
(dp1657
g100
g101
ssg82
g1646
sg75
(lp1658
S':'
asbag68
(g89
g70
NtRp1659
(dp1660
g73
(dp1661
sg82
g1646
sg75
(lp1662
g68
(g69
g70
NtRp1663
(dp1664
g73
(dp1665
g81
I4
ssg82
g1659
sg75
(lp1666
g111
asbasbasbag68
(g84
g70
NtRp1667
(dp1668
g73
(dp1669
sg82
g833
sg75
(lp1670
g68
(g89
g70
NtRp1671
(dp1672
g73
(dp1673
g93
g94
ssg82
g1667
sg75
(lp1674
S'wsgi_multithread'
p1675
asbag68
(g89
g70
NtRp1676
(dp1677
g73
(dp1678
g100
g101
ssg82
g1667
sg75
(lp1679
S':'
asbag68
(g89
g70
NtRp1680
(dp1681
g73
(dp1682
sg82
g1667
sg75
(lp1683
g68
(g69
g70
NtRp1684
(dp1685
g73
(dp1686
g81
I4
ssg82
g1680
sg75
(lp1687
S'True'
p1688
asbasbasbag68
(g84
g70
NtRp1689
(dp1690
g73
(dp1691
sg82
g833
sg75
(lp1692
g68
(g89
g70
NtRp1693
(dp1694
g73
(dp1695
g93
g94
ssg82
g1689
sg75
(lp1696
S'wsgi_run_once'
p1697
asbag68
(g89
g70
NtRp1698
(dp1699
g73
(dp1700
g100
g101
ssg82
g1689
sg75
(lp1701
S':'
asbag68
(g89
g70
NtRp1702
(dp1703
g73
(dp1704
sg82
g1689
sg75
(lp1705
g68
(g69
g70
NtRp1706
(dp1707
g73
(dp1708
g81
I4
ssg82
g1702
sg75
(lp1709
g111
asbasbasbag68
(g84
g70
NtRp1710
(dp1711
g73
(dp1712
sg82
g833
sg75
(lp1713
g68
(g89
g70
NtRp1714
(dp1715
g73
(dp1716
g93
g94
ssg82
g1710
sg75
(lp1717
S'wsgi_url_scheme'
p1718
asbag68
(g89
g70
NtRp1719
(dp1720
g73
(dp1721
g100
g101
ssg82
g1710
sg75
(lp1722
S':'
asbag68
(g89
g70
NtRp1723
(dp1724
g73
(dp1725
sg82
g1710
sg75
(lp1726
g68
(g69
g70
NtRp1727
(dp1728
g73
(dp1729
g81
I4
ssg82
g1723
sg75
(lp1730
S'http'
p1731
asbasbasbag68
(g84
g70
NtRp1732
(dp1733
g73
(dp1734
sg82
g833
sg75
(lp1735
g68
(g89
g70
NtRp1736
(dp1737
g73
(dp1738
g93
g94
ssg82
g1732
sg75
(lp1739
S'wsgi_version'
p1740
asbag68
(g89
g70
NtRp1741
(dp1742
g73
(dp1743
g100
g101
ssg82
g1732
sg75
(lp1744
S':'
asbag68
(g89
g70
NtRp1745
(dp1746
g73
(dp1747
sg82
g1732
sg75
(lp1748
g68
(g69
g70
NtRp1749
(dp1750
g73
(dp1751
g81
I4
ssg82
g1745
sg75
(lp1752
g68
(g77
g70
NtRp1753
(dp1754
g73
(dp1755
g81
I3
ssg82
Nsg75
(lp1756
g68
(g84
g70
NtRp1757
(dp1758
g73
(dp1759
sg82
g1753
sg75
(lp1760
g68
(g89
g70
NtRp1761
(dp1762
g73
(dp1763
sg82
g1757
sg75
(lp1764
g68
(g69
g70
NtRp1765
(dp1766
g73
(dp1767
g81
I3
ssg82
g1761
sg75
(lp1768
S'1'
asbasbasbag68
(g84
g70
NtRp1769
(dp1770
g73
(dp1771
sg82
g1753
sg75
(lp1772
g68
(g89
g70
NtRp1773
(dp1774
g73
(dp1775
sg82
g1769
sg75
(lp1776
g68
(g69
g70
NtRp1777
(dp1778
g73
(dp1779
g81
I3
ssg82
g1773
sg75
(lp1780
S'0'
asbasbasbasbasbasbasbasbasbasbasbag68
(g84
g70
NtRp1781
(dp1782
g73
(dp1783
sg82
g78
sg75
(lp1784
g68
(g89
g70
NtRp1785
(dp1786
g73
(dp1787
g93
g94
ssg82
g1781
sg75
(lp1788
S'extension'
p1789
asbag68
(g89
g70
NtRp1790
(dp1791
g73
(dp1792
g100
g101
ssg82
g1781
sg75
(lp1793
S':'
asbag68
(g89
g70
NtRp1794
(dp1795
g73
(dp1796
sg82
g1781
sg75
(lp1797
g68
(g69
g70
NtRp1798
(dp1799
g73
(dp1800
g81
I5
ssg82
g1794
sg75
(lp1801
S'html'
p1802
asbasbasbag68
(g84
g70
NtRp1803
(dp1804
g73
(dp1805
sg82
g78
sg75
(lp1806
g68
(g89
g70
NtRp1807
(dp1808
g73
(dp1809
g93
g94
ssg82
g1803
sg75
(lp1810
S'folder'
p1811
asbag68
(g89
g70
NtRp1812
(dp1813
g73
(dp1814
g100
g101
ssg82
g1803
sg75
(lp1815
S':'
asbag68
(g89
g70
NtRp1816
(dp1817
g73
(dp1818
sg82
g1803
sg75
(lp1819
g68
(g69
g70
NtRp1820
(dp1821
g73
(dp1822
g81
I5
ssg82
g1816
sg75
(lp1823
S'/home/shubham/web2py/applications/Search_Engine/'
p1824
asbasbasbag68
(g84
g70
NtRp1825
(dp1826
g73
(dp1827
sg82
g78
sg75
(lp1828
g68
(g89
g70
NtRp1829
(dp1830
g73
(dp1831
g93
g94
ssg82
g1825
sg75
(lp1832
S'function'
p1833
asbag68
(g89
g70
NtRp1834
(dp1835
g73
(dp1836
g100
g101
ssg82
g1825
sg75
(lp1837
S':'
asbag68
(g89
g70
NtRp1838
(dp1839
g73
(dp1840
sg82
g1825
sg75
(lp1841
g68
(g69
g70
NtRp1842
(dp1843
g73
(dp1844
g81
I5
ssg82
g1838
sg75
(lp1845
S'index'
p1846
asbasbasbag68
(g84
g70
NtRp1847
(dp1848
g73
(dp1849
sg82
g78
sg75
(lp1850
g68
(g89
g70
NtRp1851
(dp1852
g73
(dp1853
g93
g94
ssg82
g1847
sg75
(lp1854
S'get_vars'
p1855
asbag68
(g89
g70
NtRp1856
(dp1857
g73
(dp1858
g100
g101
ssg82
g1847
sg75
(lp1859
S':'
asbag68
(g89
g70
NtRp1860
(dp1861
g73
(dp1862
sg82
g1847
sg75
(lp1863
g68
(g69
g70
NtRp1864
(dp1865
g73
(dp1866
g81
I5
ssg82
g1860
sg75
(lp1867
g68
(g77
g70
NtRp1868
(dp1869
g73
(dp1870
g81
I4
ssg82
Nsg75
(lp1871
sbasbasbasbag68
(g84
g70
NtRp1872
(dp1873
g73
(dp1874
sg82
g78
sg75
(lp1875
g68
(g89
g70
NtRp1876
(dp1877
g73
(dp1878
g93
g94
ssg82
g1872
sg75
(lp1879
S'global_settings'
p1880
asbag68
(g89
g70
NtRp1881
(dp1882
g73
(dp1883
g100
g101
ssg82
g1872
sg75
(lp1884
S':'
asbag68
(g89
g70
NtRp1885
(dp1886
g73
(dp1887
sg82
g1872
sg75
(lp1888
g68
(g69
g70
NtRp1889
(dp1890
g73
(dp1891
g81
I5
ssg82
g1885
sg75
(lp1892
g68
(g77
g70
NtRp1893
(dp1894
g73
(dp1895
g81
I4
ssg82
Nsg75
(lp1896
g68
(g84
g70
NtRp1897
(dp1898
g73
(dp1899
sg82
g1893
sg75
(lp1900
g68
(g89
g70
NtRp1901
(dp1902
g73
(dp1903
g93
g94
ssg82
g1897
sg75
(lp1904
g845
asbag68
(g89
g70
NtRp1905
(dp1906
g73
(dp1907
g100
g101
ssg82
g1897
sg75
(lp1908
S':'
asbag68
(g89
g70
NtRp1909
(dp1910
g73
(dp1911
sg82
g1897
sg75
(lp1912
g68
(g69
g70
NtRp1913
(dp1914
g73
(dp1915
g81
I4
ssg82
g1909
sg75
(lp1916
S"set(['/home/shubham/web2py/applications/Search_Engine/', '/home/shubham/web2py/applications/admin/', '/home/shubham/web2py/applications/welcome/'])"
p1917
asbasbasbag68
(g84
g70
NtRp1918
(dp1919
g73
(dp1920
sg82
g1893
sg75
(lp1921
g68
(g89
g70
NtRp1922
(dp1923
g73
(dp1924
g93
g94
ssg82
g1918
sg75
(lp1925
g867
asbag68
(g89
g70
NtRp1926
(dp1927
g73
(dp1928
g100
g101
ssg82
g1918
sg75
(lp1929
S':'
asbag68
(g89
g70
NtRp1930
(dp1931
g73
(dp1932
sg82
g1918
sg75
(lp1933
g68
(g69
g70
NtRp1934
(dp1935
g73
(dp1936
g81
I4
ssg82
g1930
sg75
(lp1937
g880
asbasbasbag68
(g84
g70
NtRp1938
(dp1939
g73
(dp1940
sg82
g1893
sg75
(lp1941
g68
(g89
g70
NtRp1942
(dp1943
g73
(dp1944
g93
g94
ssg82
g1938
sg75
(lp1945
g889
asbag68
(g89
g70
NtRp1946
(dp1947
g73
(dp1948
g100
g101
ssg82
g1938
sg75
(lp1949
S':'
asbag68
(g89
g70
NtRp1950
(dp1951
g73
(dp1952
sg82
g1938
sg75
(lp1953
g68
(g69
g70
NtRp1954
(dp1955
g73
(dp1956
g81
I4
ssg82
g1950
sg75
(lp1957
g68
(g77
g70
NtRp1958
(dp1959
g73
(dp1960
g81
I3
ssg82
Nsg75
(lp1961
sbasbasbasbag68
(g84
g70
NtRp1962
(dp1963
g73
(dp1964
sg82
g1893
sg75
(lp1965
g68
(g89
g70
NtRp1966
(dp1967
g73
(dp1968
g93
g94
ssg82
g1962
sg75
(lp1969
g914
asbag68
(g89
g70
NtRp1970
(dp1971
g73
(dp1972
g100
g101
ssg82
g1962
sg75
(lp1973
S':'
asbag68
(g89
g70
NtRp1974
(dp1975
g73
(dp1976
sg82
g1962
sg75
(lp1977
g68
(g69
g70
NtRp1978
(dp1979
g73
(dp1980
g81
I4
ssg82
g1974
sg75
(lp1981
S"<Values at 0x7fbe0ab47758: {'verbose': False, 'ip': '127.0.0.1', 'shutdown_timeout': 5, 'taskbar': False, 'nocron': False, 'pid_filename': 'httpserver.pid', 'maxthreads': None, 'softcron': False, 'server_name': 'shubham-HCL-Desktop', 'bpython': False, 'nogui': False, 'port': 8000, 'extcron': False, 'debuglevel': 30, 'test': None, 'folder': '/home/shubham/web2py', 'config': '', 'import_models': False, 'winservice': '', 'shell': None, 'run': '', 'log_filename': 'httpserver.log', 'args': [''], 'socket_timeout': 5, 'ssl_ca_certificate': None, 'scheduler': None, 'profiler_filename': None, 'ssl_private_key': '', 'password': '<ask>', 'request_queue_size': 5, 'ssl_certificate': '', 'cronjob': False, 'numthreads': None, 'quiet': False, 'interfaces': None, 'minthreads': None, 'timeout': 10, 'plain': False, 'nobanner': False}>"
p1982
asbasbasbag68
(g84
g70
NtRp1983
(dp1984
g73
(dp1985
sg82
g1893
sg75
(lp1986
g68
(g89
g70
NtRp1987
(dp1988
g73
(dp1989
g93
g94
ssg82
g1983
sg75
(lp1990
g936
asbag68
(g89
g70
NtRp1991
(dp1992
g73
(dp1993
g100
g101
ssg82
g1983
sg75
(lp1994
S':'
asbag68
(g89
g70
NtRp1995
(dp1996
g73
(dp1997
sg82
g1983
sg75
(lp1998
g68
(g69
g70
NtRp1999
(dp2000
g73
(dp2001
g81
I4
ssg82
g1995
sg75
(lp2002
S'set([])'
p2003
asbasbasbag68
(g84
g70
NtRp2004
(dp2005
g73
(dp2006
sg82
g1893
sg75
(lp2007
g68
(g89
g70
NtRp2008
(dp2009
g73
(dp2010
g93
g94
ssg82
g2004
sg75
(lp2011
g958
asbag68
(g89
g70
NtRp2012
(dp2013
g73
(dp2014
g100
g101
ssg82
g2004
sg75
(lp2015
S':'
asbag68
(g89
g70
NtRp2016
(dp2017
g73
(dp2018
sg82
g2004
sg75
(lp2019
g68
(g69
g70
NtRp2020
(dp2021
g73
(dp2022
g81
I4
ssg82
g2016
sg75
(lp2023
g111
asbasbasbag68
(g84
g70
NtRp2024
(dp2025
g73
(dp2026
sg82
g1893
sg75
(lp2027
g68
(g89
g70
NtRp2028
(dp2029
g73
(dp2030
g93
g94
ssg82
g2024
sg75
(lp2031
g979
asbag68
(g89
g70
NtRp2032
(dp2033
g73
(dp2034
g100
g101
ssg82
g2024
sg75
(lp2035
S':'
asbag68
(g89
g70
NtRp2036
(dp2037
g73
(dp2038
sg82
g2024
sg75
(lp2039
g68
(g69
g70
NtRp2040
(dp2041
g73
(dp2042
g81
I4
ssg82
g2036
sg75
(lp2043
g992
asbasbasbag68
(g84
g70
NtRp2044
(dp2045
g73
(dp2046
sg82
g1893
sg75
(lp2047
g68
(g89
g70
NtRp2048
(dp2049
g73
(dp2050
g93
g94
ssg82
g2044
sg75
(lp2051
g1198
asbag68
(g89
g70
NtRp2052
(dp2053
g73
(dp2054
g100
g101
ssg82
g2044
sg75
(lp2055
S':'
asbag68
(g89
g70
NtRp2056
(dp2057
g73
(dp2058
sg82
g2044
sg75
(lp2059
g68
(g69
g70
NtRp2060
(dp2061
g73
(dp2062
g81
I4
ssg82
g2056
sg75
(lp2063
g111
asbasbasbag68
(g84
g70
NtRp2064
(dp2065
g73
(dp2066
sg82
g1893
sg75
(lp2067
g68
(g89
g70
NtRp2068
(dp2069
g73
(dp2070
g93
g94
ssg82
g2064
sg75
(lp2071
g1219
asbag68
(g89
g70
NtRp2072
(dp2073
g73
(dp2074
g100
g101
ssg82
g2064
sg75
(lp2075
S':'
asbag68
(g89
g70
NtRp2076
(dp2077
g73
(dp2078
sg82
g2064
sg75
(lp2079
g68
(g69
g70
NtRp2080
(dp2081
g73
(dp2082
g81
I4
ssg82
g2076
sg75
(lp2083
g111
asbasbasbag68
(g84
g70
NtRp2084
(dp2085
g73
(dp2086
sg82
g1893
sg75
(lp2087
g68
(g89
g70
NtRp2088
(dp2089
g73
(dp2090
g93
g94
ssg82
g2084
sg75
(lp2091
g1457
asbag68
(g89
g70
NtRp2092
(dp2093
g73
(dp2094
g100
g101
ssg82
g2084
sg75
(lp2095
S':'
asbag68
(g89
g70
NtRp2096
(dp2097
g73
(dp2098
sg82
g2084
sg75
(lp2099
g68
(g69
g70
NtRp2100
(dp2101
g73
(dp2102
g81
I4
ssg82
g2096
sg75
(lp2103
g1470
asbasbasbag68
(g84
g70
NtRp2104
(dp2105
g73
(dp2106
sg82
g1893
sg75
(lp2107
g68
(g89
g70
NtRp2108
(dp2109
g73
(dp2110
g93
g94
ssg82
g2104
sg75
(lp2111
g1500
asbag68
(g89
g70
NtRp2112
(dp2113
g73
(dp2114
g100
g101
ssg82
g2104
sg75
(lp2115
S':'
asbag68
(g89
g70
NtRp2116
(dp2117
g73
(dp2118
sg82
g2104
sg75
(lp2119
g68
(g69
g70
NtRp2120
(dp2121
g73
(dp2122
g81
I4
ssg82
g2116
sg75
(lp2123
g68
(g77
g70
NtRp2124
(dp2125
g73
(dp2126
g81
I3
ssg82
Nsg75
(lp2127
g68
(g84
g70
NtRp2128
(dp2129
g73
(dp2130
sg82
g2124
sg75
(lp2131
g68
(g89
g70
NtRp2132
(dp2133
g73
(dp2134
sg82
g2128
sg75
(lp2135
g68
(g69
g70
NtRp2136
(dp2137
g73
(dp2138
g81
I3
ssg82
g2132
sg75
(lp2139
S'1'
asbasbasbag68
(g84
g70
NtRp2140
(dp2141
g73
(dp2142
sg82
g2124
sg75
(lp2143
g68
(g89
g70
NtRp2144
(dp2145
g73
(dp2146
sg82
g2140
sg75
(lp2147
g68
(g69
g70
NtRp2148
(dp2149
g73
(dp2150
g81
I3
ssg82
g2144
sg75
(lp2151
S'99'
p2152
asbasbasbag68
(g84
g70
NtRp2153
(dp2154
g73
(dp2155
sg82
g2124
sg75
(lp2156
g68
(g89
g70
NtRp2157
(dp2158
g73
(dp2159
sg82
g2153
sg75
(lp2160
g68
(g69
g70
NtRp2161
(dp2162
g73
(dp2163
g81
I3
ssg82
g2157
sg75
(lp2164
S'7'
asbasbasbag68
(g84
g70
NtRp2165
(dp2166
g73
(dp2167
sg82
g2124
sg75
(lp2168
g68
(g89
g70
NtRp2169
(dp2170
g73
(dp2171
sg82
g2165
sg75
(lp2172
g68
(g69
g70
NtRp2173
(dp2174
g73
(dp2175
g81
I3
ssg82
g2169
sg75
(lp2176
S'datetime.datetime(2012, 3, 4, 22, 12, 8)'
p2177
asbasbasbag68
(g84
g70
NtRp2178
(dp2179
g73
(dp2180
sg82
g2124
sg75
(lp2181
g68
(g89
g70
NtRp2182
(dp2183
g73
(dp2184
sg82
g2178
sg75
(lp2185
g68
(g69
g70
NtRp2186
(dp2187
g73
(dp2188
g81
I3
ssg82
g2182
sg75
(lp2189
g1579
asbasbasbasbasbasbasbasbasbasbasbag68
(g84
g70
NtRp2190
(dp2191
g73
(dp2192
sg82
g78
sg75
(lp2193
g68
(g89
g70
NtRp2194
(dp2195
g73
(dp2196
g93
g94
ssg82
g2190
sg75
(lp2197
S'is_https'
p2198
asbag68
(g89
g70
NtRp2199
(dp2200
g73
(dp2201
g100
g101
ssg82
g2190
sg75
(lp2202
S':'
asbag68
(g89
g70
NtRp2203
(dp2204
g73
(dp2205
sg82
g2190
sg75
(lp2206
g68
(g69
g70
NtRp2207
(dp2208
g73
(dp2209
g81
I5
ssg82
g2203
sg75
(lp2210
g111
asbasbasbag68
(g84
g70
NtRp2211
(dp2212
g73
(dp2213
sg82
g78
sg75
(lp2214
g68
(g89
g70
NtRp2215
(dp2216
g73
(dp2217
g93
g94
ssg82
g2211
sg75
(lp2218
S'is_local'
p2219
asbag68
(g89
g70
NtRp2220
(dp2221
g73
(dp2222
g100
g101
ssg82
g2211
sg75
(lp2223
S':'
asbag68
(g89
g70
NtRp2224
(dp2225
g73
(dp2226
sg82
g2211
sg75
(lp2227
g68
(g69
g70
NtRp2228
(dp2229
g73
(dp2230
g81
I5
ssg82
g2224
sg75
(lp2231
g1688
asbasbasbag68
(g84
g70
NtRp2232
(dp2233
g73
(dp2234
sg82
g78
sg75
(lp2235
g68
(g89
g70
NtRp2236
(dp2237
g73
(dp2238
g93
g94
ssg82
g2232
sg75
(lp2239
S'is_restful'
p2240
asbag68
(g89
g70
NtRp2241
(dp2242
g73
(dp2243
g100
g101
ssg82
g2232
sg75
(lp2244
S':'
asbag68
(g89
g70
NtRp2245
(dp2246
g73
(dp2247
sg82
g2232
sg75
(lp2248
g68
(g69
g70
NtRp2249
(dp2250
g73
(dp2251
g81
I5
ssg82
g2245
sg75
(lp2252
g111
asbasbasbag68
(g84
g70
NtRp2253
(dp2254
g73
(dp2255
sg82
g78
sg75
(lp2256
g68
(g89
g70
NtRp2257
(dp2258
g73
(dp2259
g93
g94
ssg82
g2253
sg75
(lp2260
S'now'
p2261
asbag68
(g89
g70
NtRp2262
(dp2263
g73
(dp2264
g100
g101
ssg82
g2253
sg75
(lp2265
S':'
asbag68
(g89
g70
NtRp2266
(dp2267
g73
(dp2268
sg82
g2253
sg75
(lp2269
g68
(g69
g70
NtRp2270
(dp2271
g73
(dp2272
g81
I5
ssg82
g2266
sg75
(lp2273
S'datetime.datetime(2015, 9, 2, 17, 39, 35, 508135)'
p2274
asbasbasbag68
(g84
g70
NtRp2275
(dp2276
g73
(dp2277
sg82
g78
sg75
(lp2278
g68
(g89
g70
NtRp2279
(dp2280
g73
(dp2281
g93
g94
ssg82
g2275
sg75
(lp2282
S'post_vars'
p2283
asbag68
(g89
g70
NtRp2284
(dp2285
g73
(dp2286
g100
g101
ssg82
g2275
sg75
(lp2287
S':'
asbag68
(g89
g70
NtRp2288
(dp2289
g73
(dp2290
sg82
g2275
sg75
(lp2291
g68
(g69
g70
NtRp2292
(dp2293
g73
(dp2294
g81
I5
ssg82
g2288
sg75
(lp2295
g68
(g77
g70
NtRp2296
(dp2297
g73
(dp2298
g81
I4
ssg82
Nsg75
(lp2299
sbasbasbasbag68
(g84
g70
NtRp2300
(dp2301
g73
(dp2302
sg82
g78
sg75
(lp2303
g68
(g89
g70
NtRp2304
(dp2305
g73
(dp2306
g93
g94
ssg82
g2300
sg75
(lp2307
S'url'
p2308
asbag68
(g89
g70
NtRp2309
(dp2310
g73
(dp2311
g100
g101
ssg82
g2300
sg75
(lp2312
S':'
asbag68
(g89
g70
NtRp2313
(dp2314
g73
(dp2315
sg82
g2300
sg75
(lp2316
g68
(g69
g70
NtRp2317
(dp2318
g73
(dp2319
g81
I5
ssg82
g2313
sg75
(lp2320
S'/Search_Engine/search/index'
p2321
asbasbasbag68
(g84
g70
NtRp2322
(dp2323
g73
(dp2324
sg82
g78
sg75
(lp2325
g68
(g89
g70
NtRp2326
(dp2327
g73
(dp2328
g93
g94
ssg82
g2322
sg75
(lp2329
S'utcnow'
p2330
asbag68
(g89
g70
NtRp2331
(dp2332
g73
(dp2333
g100
g101
ssg82
g2322
sg75
(lp2334
S':'
asbag68
(g89
g70
NtRp2335
(dp2336
g73
(dp2337
sg82
g2322
sg75
(lp2338
g68
(g69
g70
NtRp2339
(dp2340
g73
(dp2341
g81
I5
ssg82
g2335
sg75
(lp2342
S'datetime.datetime(2015, 9, 2, 12, 9, 35, 508163)'
p2343
asbasbasbag68
(g84
g70
NtRp2344
(dp2345
g73
(dp2346
sg82
g78
sg75
(lp2347
g68
(g89
g70
NtRp2348
(dp2349
g73
(dp2350
g93
g94
ssg82
g2344
sg75
(lp2351
S'uuid'
p2352
asbag68
(g89
g70
NtRp2353
(dp2354
g73
(dp2355
g100
g101
ssg82
g2344
sg75
(lp2356
S':'
asbag68
(g89
g70
NtRp2357
(dp2358
g73
(dp2359
sg82
g2344
sg75
(lp2360
g68
(g69
g70
NtRp2361
(dp2362
g73
(dp2363
g81
I5
ssg82
g2357
sg75
(lp2364
S'Search_Engine/127.0.0.1.2015-09-02.17-39-35.65361d51-87f5-4681-9020-99fb79e9638f'
p2365
asbasbasbag68
(g84
g70
NtRp2366
(dp2367
g73
(dp2368
sg82
g78
sg75
(lp2369
g68
(g89
g70
NtRp2370
(dp2371
g73
(dp2372
g93
g94
ssg82
g2366
sg75
(lp2373
S'vars'
p2374
asbag68
(g89
g70
NtRp2375
(dp2376
g73
(dp2377
g100
g101
ssg82
g2366
sg75
(lp2378
S':'
asbag68
(g89
g70
NtRp2379
(dp2380
g73
(dp2381
sg82
g2366
sg75
(lp2382
g68
(g69
g70
NtRp2383
(dp2384
g73
(dp2385
g81
I5
ssg82
g2379
sg75
(lp2386
g68
(g77
g70
NtRp2387
(dp2388
g73
(dp2389
g81
I4
ssg82
Nsg75
(lp2390
sbasbasbasbag68
(g84
g70
NtRp2391
(dp2392
g73
(dp2393
sg82
g78
sg75
(lp2394
g68
(g89
g70
NtRp2395
(dp2396
g73
(dp2397
g93
g94
ssg82
g2391
sg75
(lp2398
S'wsgi'
p2399
asbag68
(g89
g70
NtRp2400
(dp2401
g73
(dp2402
g100
g101
ssg82
g2391
sg75
(lp2403
S':'
asbag68
(g89
g70
NtRp2404
(dp2405
g73
(dp2406
sg82
g2391
sg75
(lp2407
g68
(g69
g70
NtRp2408
(dp2409
g73
(dp2410
g81
I5
ssg82
g2404
sg75
(lp2411
g68
(g77
g70
NtRp2412
(dp2413
g73
(dp2414
g81
I4
ssg82
Nsg75
(lp2415
g68
(g84
g70
NtRp2416
(dp2417
g73
(dp2418
sg82
g2412
sg75
(lp2419
g68
(g89
g70
NtRp2420
(dp2421
g73
(dp2422
g93
g94
ssg82
g2416
sg75
(lp2423
S'environ'
p2424
asbag68
(g89
g70
NtRp2425
(dp2426
g73
(dp2427
g100
g101
ssg82
g2416
sg75
(lp2428
S':'
asbag68
(g89
g70
NtRp2429
(dp2430
g73
(dp2431
sg82
g2416
sg75
(lp2432
g68
(g69
g70
NtRp2433
(dp2434
g73
(dp2435
g81
I4
ssg82
g2429
sg75
(lp2436
g68
(g77
g70
NtRp2437
(dp2438
g73
(dp2439
g81
I3
ssg82
Nsg75
(lp2440
g68
(g84
g70
NtRp2441
(dp2442
g73
(dp2443
sg82
g2437
sg75
(lp2444
g68
(g89
g70
NtRp2445
(dp2446
g73
(dp2447
g93
g94
ssg82
g2441
sg75
(lp2448
S'HTTP_ACCEPT'
p2449
asbag68
(g89
g70
NtRp2450
(dp2451
g73
(dp2452
g100
g101
ssg82
g2441
sg75
(lp2453
S':'
asbag68
(g89
g70
NtRp2454
(dp2455
g73
(dp2456
sg82
g2441
sg75
(lp2457
g68
(g69
g70
NtRp2458
(dp2459
g73
(dp2460
g81
I3
ssg82
g2454
sg75
(lp2461
g1014
asbasbasbag68
(g84
g70
NtRp2462
(dp2463
g73
(dp2464
sg82
g2437
sg75
(lp2465
g68
(g89
g70
NtRp2466
(dp2467
g73
(dp2468
g93
g94
ssg82
g2462
sg75
(lp2469
S'HTTP_ACCEPT_ENCODING'
p2470
asbag68
(g89
g70
NtRp2471
(dp2472
g73
(dp2473
g100
g101
ssg82
g2462
sg75
(lp2474
S':'
asbag68
(g89
g70
NtRp2475
(dp2476
g73
(dp2477
sg82
g2462
sg75
(lp2478
g68
(g69
g70
NtRp2479
(dp2480
g73
(dp2481
g81
I3
ssg82
g2475
sg75
(lp2482
g1036
asbasbasbag68
(g84
g70
NtRp2483
(dp2484
g73
(dp2485
sg82
g2437
sg75
(lp2486
g68
(g89
g70
NtRp2487
(dp2488
g73
(dp2489
g93
g94
ssg82
g2483
sg75
(lp2490
S'HTTP_ACCEPT_LANGUAGE'
p2491
asbag68
(g89
g70
NtRp2492
(dp2493
g73
(dp2494
g100
g101
ssg82
g2483
sg75
(lp2495
S':'
asbag68
(g89
g70
NtRp2496
(dp2497
g73
(dp2498
sg82
g2483
sg75
(lp2499
g68
(g69
g70
NtRp2500
(dp2501
g73
(dp2502
g81
I3
ssg82
g2496
sg75
(lp2503
g1058
asbasbasbag68
(g84
g70
NtRp2504
(dp2505
g73
(dp2506
sg82
g2437
sg75
(lp2507
g68
(g89
g70
NtRp2508
(dp2509
g73
(dp2510
g93
g94
ssg82
g2504
sg75
(lp2511
S'HTTP_CACHE_CONTROL'
p2512
asbag68
(g89
g70
NtRp2513
(dp2514
g73
(dp2515
g100
g101
ssg82
g2504
sg75
(lp2516
S':'
asbag68
(g89
g70
NtRp2517
(dp2518
g73
(dp2519
sg82
g2504
sg75
(lp2520
g68
(g69
g70
NtRp2521
(dp2522
g73
(dp2523
g81
I3
ssg82
g2517
sg75
(lp2524
g1080
asbasbasbag68
(g84
g70
NtRp2525
(dp2526
g73
(dp2527
sg82
g2437
sg75
(lp2528
g68
(g89
g70
NtRp2529
(dp2530
g73
(dp2531
g93
g94
ssg82
g2525
sg75
(lp2532
S'HTTP_CONNECTION'
p2533
asbag68
(g89
g70
NtRp2534
(dp2535
g73
(dp2536
g100
g101
ssg82
g2525
sg75
(lp2537
S':'
asbag68
(g89
g70
NtRp2538
(dp2539
g73
(dp2540
sg82
g2525
sg75
(lp2541
g68
(g69
g70
NtRp2542
(dp2543
g73
(dp2544
g81
I3
ssg82
g2538
sg75
(lp2545
g1102
asbasbasbag68
(g84
g70
NtRp2546
(dp2547
g73
(dp2548
sg82
g2437
sg75
(lp2549
g68
(g89
g70
NtRp2550
(dp2551
g73
(dp2552
g93
g94
ssg82
g2546
sg75
(lp2553
S'HTTP_COOKIE'
p2554
asbag68
(g89
g70
NtRp2555
(dp2556
g73
(dp2557
g100
g101
ssg82
g2546
sg75
(lp2558
S':'
asbag68
(g89
g70
NtRp2559
(dp2560
g73
(dp2561
sg82
g2546
sg75
(lp2562
g68
(g69
g70
NtRp2563
(dp2564
g73
(dp2565
g81
I3
ssg82
g2559
sg75
(lp2566
g1124
asbasbasbag68
(g84
g70
NtRp2567
(dp2568
g73
(dp2569
sg82
g2437
sg75
(lp2570
g68
(g89
g70
NtRp2571
(dp2572
g73
(dp2573
g93
g94
ssg82
g2567
sg75
(lp2574
S'HTTP_HOST'
p2575
asbag68
(g89
g70
NtRp2576
(dp2577
g73
(dp2578
g100
g101
ssg82
g2567
sg75
(lp2579
S':'
asbag68
(g89
g70
NtRp2580
(dp2581
g73
(dp2582
sg82
g2567
sg75
(lp2583
g68
(g69
g70
NtRp2584
(dp2585
g73
(dp2586
g81
I3
ssg82
g2580
sg75
(lp2587
g1146
asbasbasbag68
(g84
g70
NtRp2588
(dp2589
g73
(dp2590
sg82
g2437
sg75
(lp2591
g68
(g89
g70
NtRp2592
(dp2593
g73
(dp2594
g93
g94
ssg82
g2588
sg75
(lp2595
S'HTTP_UPGRADE_INSECURE_REQUESTS'
p2596
asbag68
(g89
g70
NtRp2597
(dp2598
g73
(dp2599
g100
g101
ssg82
g2588
sg75
(lp2600
S':'
asbag68
(g89
g70
NtRp2601
(dp2602
g73
(dp2603
sg82
g2588
sg75
(lp2604
g68
(g69
g70
NtRp2605
(dp2606
g73
(dp2607
g81
I3
ssg82
g2601
sg75
(lp2608
S'1'
asbasbasbag68
(g84
g70
NtRp2609
(dp2610
g73
(dp2611
sg82
g2437
sg75
(lp2612
g68
(g89
g70
NtRp2613
(dp2614
g73
(dp2615
g93
g94
ssg82
g2609
sg75
(lp2616
S'HTTP_USER_AGENT'
p2617
asbag68
(g89
g70
NtRp2618
(dp2619
g73
(dp2620
g100
g101
ssg82
g2609
sg75
(lp2621
S':'
asbag68
(g89
g70
NtRp2622
(dp2623
g73
(dp2624
sg82
g2609
sg75
(lp2625
g68
(g69
g70
NtRp2626
(dp2627
g73
(dp2628
g81
I3
ssg82
g2622
sg75
(lp2629
g1189
asbasbasbag68
(g84
g70
NtRp2630
(dp2631
g73
(dp2632
sg82
g2437
sg75
(lp2633
g68
(g89
g70
NtRp2634
(dp2635
g73
(dp2636
g93
g94
ssg82
g2630
sg75
(lp2637
S'PATH_INFO'
p2638
asbag68
(g89
g70
NtRp2639
(dp2640
g73
(dp2641
g100
g101
ssg82
g2630
sg75
(lp2642
S':'
asbag68
(g89
g70
NtRp2643
(dp2644
g73
(dp2645
sg82
g2630
sg75
(lp2646
g68
(g69
g70
NtRp2647
(dp2648
g73
(dp2649
g81
I3
ssg82
g2643
sg75
(lp2650
g1253
asbasbasbag68
(g84
g70
NtRp2651
(dp2652
g73
(dp2653
sg82
g2437
sg75
(lp2654
g68
(g89
g70
NtRp2655
(dp2656
g73
(dp2657
g93
g94
ssg82
g2651
sg75
(lp2658
S'QUERY_STRING'
p2659
asbag68
(g89
g70
NtRp2660
(dp2661
g73
(dp2662
g100
g101
ssg82
g2651
sg75
(lp2663
S':'
asbag68
(g89
g70
NtRp2664
(dp2665
g73
(dp2666
sg82
g2651
sg75
(lp2667
g68
(g69
g70
NtRp2668
(dp2669
g73
(dp2670
g81
I3
ssg82
g2664
sg75
(lp2671
S''
asbasbasbag68
(g84
g70
NtRp2672
(dp2673
g73
(dp2674
sg82
g2437
sg75
(lp2675
g68
(g89
g70
NtRp2676
(dp2677
g73
(dp2678
g93
g94
ssg82
g2672
sg75
(lp2679
S'REMOTE_ADDR'
p2680
asbag68
(g89
g70
NtRp2681
(dp2682
g73
(dp2683
g100
g101
ssg82
g2672
sg75
(lp2684
S':'
asbag68
(g89
g70
NtRp2685
(dp2686
g73
(dp2687
sg82
g2672
sg75
(lp2688
g68
(g69
g70
NtRp2689
(dp2690
g73
(dp2691
g81
I3
ssg82
g2685
sg75
(lp2692
g201
asbasbasbag68
(g84
g70
NtRp2693
(dp2694
g73
(dp2695
sg82
g2437
sg75
(lp2696
g68
(g89
g70
NtRp2697
(dp2698
g73
(dp2699
g93
g94
ssg82
g2693
sg75
(lp2700
S'REMOTE_PORT'
p2701
asbag68
(g89
g70
NtRp2702
(dp2703
g73
(dp2704
g100
g101
ssg82
g2693
sg75
(lp2705
S':'
asbag68
(g89
g70
NtRp2706
(dp2707
g73
(dp2708
sg82
g2693
sg75
(lp2709
g68
(g69
g70
NtRp2710
(dp2711
g73
(dp2712
g81
I3
ssg82
g2706
sg75
(lp2713
g1317
asbasbasbag68
(g84
g70
NtRp2714
(dp2715
g73
(dp2716
sg82
g2437
sg75
(lp2717
g68
(g89
g70
NtRp2718
(dp2719
g73
(dp2720
g93
g94
ssg82
g2714
sg75
(lp2721
S'REQUEST_METHOD'
p2722
asbag68
(g89
g70
NtRp2723
(dp2724
g73
(dp2725
g100
g101
ssg82
g2714
sg75
(lp2726
S':'
asbag68
(g89
g70
NtRp2727
(dp2728
g73
(dp2729
sg82
g2714
sg75
(lp2730
g68
(g69
g70
NtRp2731
(dp2732
g73
(dp2733
g81
I3
ssg82
g2727
sg75
(lp2734
g1339
asbasbasbag68
(g84
g70
NtRp2735
(dp2736
g73
(dp2737
sg82
g2437
sg75
(lp2738
g68
(g89
g70
NtRp2739
(dp2740
g73
(dp2741
g93
g94
ssg82
g2735
sg75
(lp2742
S'SCRIPT_NAME'
p2743
asbag68
(g89
g70
NtRp2744
(dp2745
g73
(dp2746
g100
g101
ssg82
g2735
sg75
(lp2747
S':'
asbag68
(g89
g70
NtRp2748
(dp2749
g73
(dp2750
sg82
g2735
sg75
(lp2751
g68
(g69
g70
NtRp2752
(dp2753
g73
(dp2754
g81
I3
ssg82
g2748
sg75
(lp2755
S''
asbasbasbag68
(g84
g70
NtRp2756
(dp2757
g73
(dp2758
sg82
g2437
sg75
(lp2759
g68
(g89
g70
NtRp2760
(dp2761
g73
(dp2762
g93
g94
ssg82
g2756
sg75
(lp2763
S'SERVER_NAME'
p2764
asbag68
(g89
g70
NtRp2765
(dp2766
g73
(dp2767
g100
g101
ssg82
g2756
sg75
(lp2768
S':'
asbag68
(g89
g70
NtRp2769
(dp2770
g73
(dp2771
sg82
g2756
sg75
(lp2772
g68
(g69
g70
NtRp2773
(dp2774
g73
(dp2775
g81
I3
ssg82
g2769
sg75
(lp2776
g1382
asbasbasbag68
(g84
g70
NtRp2777
(dp2778
g73
(dp2779
sg82
g2437
sg75
(lp2780
g68
(g89
g70
NtRp2781
(dp2782
g73
(dp2783
g93
g94
ssg82
g2777
sg75
(lp2784
S'SERVER_PORT'
p2785
asbag68
(g89
g70
NtRp2786
(dp2787
g73
(dp2788
g100
g101
ssg82
g2777
sg75
(lp2789
S':'
asbag68
(g89
g70
NtRp2790
(dp2791
g73
(dp2792
sg82
g2777
sg75
(lp2793
g68
(g69
g70
NtRp2794
(dp2795
g73
(dp2796
g81
I3
ssg82
g2790
sg75
(lp2797
g1404
asbasbasbag68
(g84
g70
NtRp2798
(dp2799
g73
(dp2800
sg82
g2437
sg75
(lp2801
g68
(g89
g70
NtRp2802
(dp2803
g73
(dp2804
g93
g94
ssg82
g2798
sg75
(lp2805
S'SERVER_PROTOCOL'
p2806
asbag68
(g89
g70
NtRp2807
(dp2808
g73
(dp2809
g100
g101
ssg82
g2798
sg75
(lp2810
S':'
asbag68
(g89
g70
NtRp2811
(dp2812
g73
(dp2813
sg82
g2798
sg75
(lp2814
g68
(g69
g70
NtRp2815
(dp2816
g73
(dp2817
g81
I3
ssg82
g2811
sg75
(lp2818
g1426
asbasbasbag68
(g84
g70
NtRp2819
(dp2820
g73
(dp2821
sg82
g2437
sg75
(lp2822
g68
(g89
g70
NtRp2823
(dp2824
g73
(dp2825
g93
g94
ssg82
g2819
sg75
(lp2826
S'SERVER_SOFTWARE'
p2827
asbag68
(g89
g70
NtRp2828
(dp2829
g73
(dp2830
g100
g101
ssg82
g2819
sg75
(lp2831
S':'
asbag68
(g89
g70
NtRp2832
(dp2833
g73
(dp2834
sg82
g2819
sg75
(lp2835
g68
(g69
g70
NtRp2836
(dp2837
g73
(dp2838
g81
I3
ssg82
g2832
sg75
(lp2839
g1448
asbasbasbag68
(g84
g70
NtRp2840
(dp2841
g73
(dp2842
sg82
g2437
sg75
(lp2843
g68
(g89
g70
NtRp2844
(dp2845
g73
(dp2846
g93
g94
ssg82
g2840
sg75
(lp2847
S'wsgi.errors'
p2848
asbag68
(g89
g70
NtRp2849
(dp2850
g73
(dp2851
g100
g101
ssg82
g2840
sg75
(lp2852
S':'
asbag68
(g89
g70
NtRp2853
(dp2854
g73
(dp2855
sg82
g2840
sg75
(lp2856
g68
(g69
g70
NtRp2857
(dp2858
g73
(dp2859
g81
I3
ssg82
g2853
sg75
(lp2860
S"<open file '<stderr>', mode 'w' at 0x7fbe0c85e1e0>"
p2861
asbasbasbag68
(g84
g70
NtRp2862
(dp2863
g73
(dp2864
sg82
g2437
sg75
(lp2865
g68
(g89
g70
NtRp2866
(dp2867
g73
(dp2868
g93
g94
ssg82
g2862
sg75
(lp2869
S'wsgi.file_wrapper'
p2870
asbag68
(g89
g70
NtRp2871
(dp2872
g73
(dp2873
g100
g101
ssg82
g2862
sg75
(lp2874
S':'
asbag68
(g89
g70
NtRp2875
(dp2876
g73
(dp2877
sg82
g2862
sg75
(lp2878
g68
(g69
g70
NtRp2879
(dp2880
g73
(dp2881
g81
I3
ssg82
g2875
sg75
(lp2882
S'<class wsgiref.util.FileWrapper at 0x7fbe082e6598>'
p2883
asbasbasbag68
(g84
g70
NtRp2884
(dp2885
g73
(dp2886
sg82
g2437
sg75
(lp2887
g68
(g89
g70
NtRp2888
(dp2889
g73
(dp2890
g93
g94
ssg82
g2884
sg75
(lp2891
S'wsgi.input'
p2892
asbag68
(g89
g70
NtRp2893
(dp2894
g73
(dp2895
g100
g101
ssg82
g2884
sg75
(lp2896
S':'
asbag68
(g89
g70
NtRp2897
(dp2898
g73
(dp2899
sg82
g2884
sg75
(lp2900
g68
(g69
g70
NtRp2901
(dp2902
g73
(dp2903
g81
I3
ssg82
g2897
sg75
(lp2904
S'<cStringIO.StringO object at 0x7fbdb2d01c00>'
p2905
asbasbasbag68
(g84
g70
NtRp2906
(dp2907
g73
(dp2908
sg82
g2437
sg75
(lp2909
g68
(g89
g70
NtRp2910
(dp2911
g73
(dp2912
g93
g94
ssg82
g2906
sg75
(lp2913
S'wsgi.multiprocess'
p2914
asbag68
(g89
g70
NtRp2915
(dp2916
g73
(dp2917
g100
g101
ssg82
g2906
sg75
(lp2918
S':'
asbag68
(g89
g70
NtRp2919
(dp2920
g73
(dp2921
sg82
g2906
sg75
(lp2922
g68
(g69
g70
NtRp2923
(dp2924
g73
(dp2925
g81
I3
ssg82
g2919
sg75
(lp2926
g111
asbasbasbag68
(g84
g70
NtRp2927
(dp2928
g73
(dp2929
sg82
g2437
sg75
(lp2930
g68
(g89
g70
NtRp2931
(dp2932
g73
(dp2933
g93
g94
ssg82
g2927
sg75
(lp2934
S'wsgi.multithread'
p2935
asbag68
(g89
g70
NtRp2936
(dp2937
g73
(dp2938
g100
g101
ssg82
g2927
sg75
(lp2939
S':'
asbag68
(g89
g70
NtRp2940
(dp2941
g73
(dp2942
sg82
g2927
sg75
(lp2943
g68
(g69
g70
NtRp2944
(dp2945
g73
(dp2946
g81
I3
ssg82
g2940
sg75
(lp2947
g1688
asbasbasbag68
(g84
g70
NtRp2948
(dp2949
g73
(dp2950
sg82
g2437
sg75
(lp2951
g68
(g89
g70
NtRp2952
(dp2953
g73
(dp2954
g93
g94
ssg82
g2948
sg75
(lp2955
S'wsgi.run_once'
p2956
asbag68
(g89
g70
NtRp2957
(dp2958
g73
(dp2959
g100
g101
ssg82
g2948
sg75
(lp2960
S':'
asbag68
(g89
g70
NtRp2961
(dp2962
g73
(dp2963
sg82
g2948
sg75
(lp2964
g68
(g69
g70
NtRp2965
(dp2966
g73
(dp2967
g81
I3
ssg82
g2961
sg75
(lp2968
g111
asbasbasbag68
(g84
g70
NtRp2969
(dp2970
g73
(dp2971
sg82
g2437
sg75
(lp2972
g68
(g89
g70
NtRp2973
(dp2974
g73
(dp2975
g93
g94
ssg82
g2969
sg75
(lp2976
S'wsgi.url_scheme'
p2977
asbag68
(g89
g70
NtRp2978
(dp2979
g73
(dp2980
g100
g101
ssg82
g2969
sg75
(lp2981
S':'
asbag68
(g89
g70
NtRp2982
(dp2983
g73
(dp2984
sg82
g2969
sg75
(lp2985
g68
(g69
g70
NtRp2986
(dp2987
g73
(dp2988
g81
I3
ssg82
g2982
sg75
(lp2989
g1731
asbasbasbag68
(g84
g70
NtRp2990
(dp2991
g73
(dp2992
sg82
g2437
sg75
(lp2993
g68
(g89
g70
NtRp2994
(dp2995
g73
(dp2996
g93
g94
ssg82
g2990
sg75
(lp2997
S'wsgi.version'
p2998
asbag68
(g89
g70
NtRp2999
(dp3000
g73
(dp3001
g100
g101
ssg82
g2990
sg75
(lp3002
S':'
asbag68
(g89
g70
NtRp3003
(dp3004
g73
(dp3005
sg82
g2990
sg75
(lp3006
g68
(g69
g70
NtRp3007
(dp3008
g73
(dp3009
g81
I3
ssg82
g3003
sg75
(lp3010
S'1'
asbasbasbasbasbasbasbasbasbasbasbasbasbsS'frames'
p3011
(lp3012
(dp3013
S'file'
p3014
S'/usr/lib/pymodules/python2.7/gluon/restricted.py'
p3015
sS'dump'
p3016
(dp3017
S'code'
p3018
S'\'response.write(\\\'<!DOCTYPE html>\\\\n<html>\\\\n<head>\\\\..."></script>\\\\n\\\\n</body>\\\\n</html>\\\\n\\\', escape=False)\''
p3019
sS'layer'
p3020
S"'/home/shubham/web2py/applications/Search_Engine/views/search/index.html'"
p3021
sS'global compile2'
p3022
S'<function compile2>'
p3023
sS'ccode'
p3024
S'undefined'
p3025
ssS'lnum'
p3026
I204
sS'lines'
p3027
(dp3028
I199
S"    environment['__name__'] = '__restricted__'"
p3029
sI200
S'    try:'
p3030
sI201
S'        if type(code) == types.CodeType:'
p3031
sI202
S'            ccode = code'
p3032
sI203
S'        else:'
p3033
sI204
S'            ccode = compile2(code,layer)'
p3034
sI205
S'        exec ccode in environment'
p3035
sI206
S'    except HTTP:'
p3036
sI207
S'        raise'
p3037
sI208
S'    except RestrictedError:'
p3038
ssS'call'
p3039
S'(code=\'response.write(\\\'<!DOCTYPE html>\\\\n<html>\\\\n<head>\\\\..."></script>\\\\n\\\\n</body>\\\\n</html>\\\\n\\\', escape=False)\', environment={\'A\': <class \'gluon.html.A\'>, \'Auth\': <class \'gluon.tools.Auth\'>, \'B\': <class \'gluon.html.B\'>, \'BEAUTIFY\': <class \'gluon.html.BEAUTIFY\'>, \'BODY\': <class \'gluon.html.BODY\'>, \'BR\': <class \'gluon.html.BR\'>, \'BUTTON\': <class \'gluon.html.BUTTON\'>, \'CAT\': <class \'gluon.html.CAT\'>, \'CENTER\': <class \'gluon.html.CENTER\'>, \'CLEANUP\': <class \'gluon.validators.CLEANUP\'>, ...}, layer=\'/home/shubham/web2py/applications/Search_Engine/views/search/index.html\')'
p3040
sS'func'
p3041
S'restricted'
p3042
sa(dp3043
g3014
S'/usr/lib/pymodules/python2.7/gluon/restricted.py'
p3044
sg3016
(dp3045
S'builtincompile'
p3046
S'<built-in function compile>'
p3047
sS'code'
p3048
S'\'response.write(\\\'<!DOCTYPE html>\\\\n<html>\\\\n<head>\\\\..."></script>\\\\n\\\\n</body>\\\\n</html>\\\\n\\\', escape=False)\''
p3049
sS'code.rstrip'
p3050
S'<built-in method rstrip of str object>'
p3051
sS').replace'
p3052
g3025
sS'layer'
p3053
S"'/home/shubham/web2py/applications/Search_Engine/views/search/index.html'"
p3054
ssg3026
I189
sg3027
(dp3055
I192
S'    """'
p3056
sI193
S'    runs code in environment and returns the output. if an exception occurs'
p3057
sI184
S''
sI185
S'def compile2(code,layer):'
p3058
sI186
S'    """'
p3059
sI187
S"    The +'\\n' is necessary else compile fails when code ends in a comment."
p3060
sI188
S'    """'
p3061
sI189
S"    return compile(code.rstrip().replace('\\r\\n','\\n')+'\\n', layer, 'exec')"
p3062
sI190
S''
sI191
S"def restricted(code, environment=None, layer='Unknown'):"
p3063
ssg3039
S'(code=\'response.write(\\\'<!DOCTYPE html>\\\\n<html>\\\\n<head>\\\\..."></script>\\\\n\\\\n</body>\\\\n</html>\\\\n\\\', escape=False)\', layer=\'/home/shubham/web2py/applications/Search_Engine/views/search/index.html\')'
p3064
sg3041
S'compile2'
p3065
sasS'pyver'
p3066
S'Python 2.7.9: /usr/bin/python'
p3067
sS'session'
p3068
g68
(g69
g70
NtRp3069
(dp3070
g73
(dp3071
sg75
(lp3072
g68
(g77
g70
NtRp3073
(dp3074
g73
(dp3075
g81
I5
ssg82
Nsg75
(lp3076
sbasbsS'etype'
p3077
S"<type 'exceptions.SyntaxError'>"
p3078
sS'date'
p3079
S'Wed Sep  2 17:39:35 2015'
p3080
sS'response'
p3081
g68
(g69
g70
NtRp3082
(dp3083
g73
(dp3084
sg75
(lp3085
g68
(g77
g70
NtRp3086
(dp3087
g73
(dp3088
g81
I5
ssg82
Nsg75
(lp3089
g68
(g84
g70
NtRp3090
(dp3091
g73
(dp3092
sg82
g3086
sg75
(lp3093
g68
(g89
g70
NtRp3094
(dp3095
g73
(dp3096
g93
g94
ssg82
g3090
sg75
(lp3097
g166
asbag68
(g89
g70
NtRp3098
(dp3099
g73
(dp3100
g100
g101
ssg82
g3090
sg75
(lp3101
S':'
asbag68
(g89
g70
NtRp3102
(dp3103
g73
(dp3104
sg82
g3090
sg75
(lp3105
g68
(g69
g70
NtRp3106
(dp3107
g73
(dp3108
g81
I5
ssg82
g3102
sg75
(lp3109
S'<cStringIO.StringO object at 0x7fbdb2d018b8>'
p3110
asbasbasbag68
(g84
g70
NtRp3111
(dp3112
g73
(dp3113
sg82
g3086
sg75
(lp3114
g68
(g89
g70
NtRp3115
(dp3116
g73
(dp3117
g93
g94
ssg82
g3111
sg75
(lp3118
g232
asbag68
(g89
g70
NtRp3119
(dp3120
g73
(dp3121
g100
g101
ssg82
g3111
sg75
(lp3122
S':'
asbag68
(g89
g70
NtRp3123
(dp3124
g73
(dp3125
sg82
g3111
sg75
(lp3126
g68
(g69
g70
NtRp3127
(dp3128
g73
(dp3129
g81
I5
ssg82
g3123
sg75
(lp3130
g68
(g77
g70
NtRp3131
(dp3132
g73
(dp3133
g81
I4
ssg82
Nsg75
(lp3134
g68
(g84
g70
NtRp3135
(dp3136
g73
(dp3137
sg82
g3131
sg75
(lp3138
g68
(g89
g70
NtRp3139
(dp3140
g73
(dp3141
g93
g94
ssg82
g3135
sg75
(lp3142
S'session_id_search_engine'
p3143
asbag68
(g89
g70
NtRp3144
(dp3145
g73
(dp3146
g100
g101
ssg82
g3135
sg75
(lp3147
S':'
asbag68
(g89
g70
NtRp3148
(dp3149
g73
(dp3150
sg82
g3135
sg75
(lp3151
g68
(g69
g70
NtRp3152
(dp3153
g73
(dp3154
g81
I4
ssg82
g3148
sg75
(lp3155
g68
(g77
g70
NtRp3156
(dp3157
g73
(dp3158
g81
I3
ssg82
Nsg75
(lp3159
g68
(g84
g70
NtRp3160
(dp3161
g73
(dp3162
sg82
g3156
sg75
(lp3163
g68
(g89
g70
NtRp3164
(dp3165
g73
(dp3166
g93
g94
ssg82
g3160
sg75
(lp3167
g282
asbag68
(g89
g70
NtRp3168
(dp3169
g73
(dp3170
g100
g101
ssg82
g3160
sg75
(lp3171
S':'
asbag68
(g89
g70
NtRp3172
(dp3173
g73
(dp3174
sg82
g3160
sg75
(lp3175
g68
(g69
g70
NtRp3176
(dp3177
g73
(dp3178
g81
I3
ssg82
g3172
sg75
(lp3179
S''
asbasbasbag68
(g84
g70
NtRp3180
(dp3181
g73
(dp3182
sg82
g3156
sg75
(lp3183
g68
(g89
g70
NtRp3184
(dp3185
g73
(dp3186
g93
g94
ssg82
g3180
sg75
(lp3187
g303
asbag68
(g89
g70
NtRp3188
(dp3189
g73
(dp3190
g100
g101
ssg82
g3180
sg75
(lp3191
S':'
asbag68
(g89
g70
NtRp3192
(dp3193
g73
(dp3194
sg82
g3180
sg75
(lp3195
g68
(g69
g70
NtRp3196
(dp3197
g73
(dp3198
g81
I3
ssg82
g3192
sg75
(lp3199
S''
asbasbasbag68
(g84
g70
NtRp3200
(dp3201
g73
(dp3202
sg82
g3156
sg75
(lp3203
g68
(g89
g70
NtRp3204
(dp3205
g73
(dp3206
g93
g94
ssg82
g3200
sg75
(lp3207
g324
asbag68
(g89
g70
NtRp3208
(dp3209
g73
(dp3210
g100
g101
ssg82
g3200
sg75
(lp3211
S':'
asbag68
(g89
g70
NtRp3212
(dp3213
g73
(dp3214
sg82
g3200
sg75
(lp3215
g68
(g69
g70
NtRp3216
(dp3217
g73
(dp3218
g81
I3
ssg82
g3212
sg75
(lp3219
S''
asbasbasbag68
(g84
g70
NtRp3220
(dp3221
g73
(dp3222
sg82
g3156
sg75
(lp3223
g68
(g89
g70
NtRp3224
(dp3225
g73
(dp3226
g93
g94
ssg82
g3220
sg75
(lp3227
g345
asbag68
(g89
g70
NtRp3228
(dp3229
g73
(dp3230
g100
g101
ssg82
g3220
sg75
(lp3231
S':'
asbag68
(g89
g70
NtRp3232
(dp3233
g73
(dp3234
sg82
g3220
sg75
(lp3235
g68
(g69
g70
NtRp3236
(dp3237
g73
(dp3238
g81
I3
ssg82
g3232
sg75
(lp3239
S''
asbasbasbag68
(g84
g70
NtRp3240
(dp3241
g73
(dp3242
sg82
g3156
sg75
(lp3243
g68
(g89
g70
NtRp3244
(dp3245
g73
(dp3246
g93
g94
ssg82
g3240
sg75
(lp3247
g366
asbag68
(g89
g70
NtRp3248
(dp3249
g73
(dp3250
g100
g101
ssg82
g3240
sg75
(lp3251
S':'
asbag68
(g89
g70
NtRp3252
(dp3253
g73
(dp3254
sg82
g3240
sg75
(lp3255
g68
(g69
g70
NtRp3256
(dp3257
g73
(dp3258
g81
I3
ssg82
g3252
sg75
(lp3259
S''
asbasbasbag68
(g84
g70
NtRp3260
(dp3261
g73
(dp3262
sg82
g3156
sg75
(lp3263
g68
(g89
g70
NtRp3264
(dp3265
g73
(dp3266
g93
g94
ssg82
g3260
sg75
(lp3267
g387
asbag68
(g89
g70
NtRp3268
(dp3269
g73
(dp3270
g100
g101
ssg82
g3260
sg75
(lp3271
S':'
asbag68
(g89
g70
NtRp3272
(dp3273
g73
(dp3274
sg82
g3260
sg75
(lp3275
g68
(g69
g70
NtRp3276
(dp3277
g73
(dp3278
g81
I3
ssg82
g3272
sg75
(lp3279
S'/'
asbasbasbag68
(g84
g70
NtRp3280
(dp3281
g73
(dp3282
sg82
g3156
sg75
(lp3283
g68
(g89
g70
NtRp3284
(dp3285
g73
(dp3286
g93
g94
ssg82
g3280
sg75
(lp3287
g408
asbag68
(g89
g70
NtRp3288
(dp3289
g73
(dp3290
g100
g101
ssg82
g3280
sg75
(lp3291
S':'
asbag68
(g89
g70
NtRp3292
(dp3293
g73
(dp3294
sg82
g3280
sg75
(lp3295
g68
(g69
g70
NtRp3296
(dp3297
g73
(dp3298
g81
I3
ssg82
g3292
sg75
(lp3299
S''
asbasbasbag68
(g84
g70
NtRp3300
(dp3301
g73
(dp3302
sg82
g3156
sg75
(lp3303
g68
(g89
g70
NtRp3304
(dp3305
g73
(dp3306
g93
g94
ssg82
g3300
sg75
(lp3307
g429
asbag68
(g89
g70
NtRp3308
(dp3309
g73
(dp3310
g100
g101
ssg82
g3300
sg75
(lp3311
S':'
asbag68
(g89
g70
NtRp3312
(dp3313
g73
(dp3314
sg82
g3300
sg75
(lp3315
g68
(g69
g70
NtRp3316
(dp3317
g73
(dp3318
g81
I3
ssg82
g3312
sg75
(lp3319
S''
asbasbasbasbasbasbasbasbasbasbasbag68
(g84
g70
NtRp3320
(dp3321
g73
(dp3322
sg82
g3086
sg75
(lp3323
g68
(g89
g70
NtRp3324
(dp3325
g73
(dp3326
g93
g94
ssg82
g3320
sg75
(lp3327
S'delimiters'
p3328
asbag68
(g89
g70
NtRp3329
(dp3330
g73
(dp3331
g100
g101
ssg82
g3320
sg75
(lp3332
S':'
asbag68
(g89
g70
NtRp3333
(dp3334
g73
(dp3335
sg82
g3320
sg75
(lp3336
g68
(g69
g70
NtRp3337
(dp3338
g73
(dp3339
g81
I5
ssg82
g3333
sg75
(lp3340
g68
(g77
g70
NtRp3341
(dp3342
g73
(dp3343
g81
I4
ssg82
Nsg75
(lp3344
g68
(g84
g70
NtRp3345
(dp3346
g73
(dp3347
sg82
g3341
sg75
(lp3348
g68
(g89
g70
NtRp3349
(dp3350
g73
(dp3351
sg82
g3345
sg75
(lp3352
g68
(g69
g70
NtRp3353
(dp3354
g73
(dp3355
g81
I4
ssg82
g3349
sg75
(lp3356
S'{{'
p3357
asbasbasbag68
(g84
g70
NtRp3358
(dp3359
g73
(dp3360
sg82
g3341
sg75
(lp3361
g68
(g89
g70
NtRp3362
(dp3363
g73
(dp3364
sg82
g3358
sg75
(lp3365
g68
(g69
g70
NtRp3366
(dp3367
g73
(dp3368
g81
I4
ssg82
g3362
sg75
(lp3369
S'}}'
p3370
asbasbasbasbasbasbasbag68
(g84
g70
NtRp3371
(dp3372
g73
(dp3373
sg82
g3086
sg75
(lp3374
g68
(g89
g70
NtRp3375
(dp3376
g73
(dp3377
g93
g94
ssg82
g3371
sg75
(lp3378
S'files'
p3379
asbag68
(g89
g70
NtRp3380
(dp3381
g73
(dp3382
g100
g101
ssg82
g3371
sg75
(lp3383
S':'
asbag68
(g89
g70
NtRp3384
(dp3385
g73
(dp3386
sg82
g3371
sg75
(lp3387
g68
(g69
g70
NtRp3388
(dp3389
g73
(dp3390
g81
I5
ssg82
g3384
sg75
(lp3391
g68
(g77
g70
NtRp3392
(dp3393
g73
(dp3394
g81
I4
ssg82
Nsg75
(lp3395
sbasbasbasbag68
(g84
g70
NtRp3396
(dp3397
g73
(dp3398
sg82
g3086
sg75
(lp3399
g68
(g89
g70
NtRp3400
(dp3401
g73
(dp3402
g93
g94
ssg82
g3396
sg75
(lp3403
S'flash'
p3404
asbag68
(g89
g70
NtRp3405
(dp3406
g73
(dp3407
g100
g101
ssg82
g3396
sg75
(lp3408
S':'
asbag68
(g89
g70
NtRp3409
(dp3410
g73
(dp3411
sg82
g3396
sg75
(lp3412
g68
(g69
g70
NtRp3413
(dp3414
g73
(dp3415
g81
I5
ssg82
g3409
sg75
(lp3416
S''
asbasbasbag68
(g84
g70
NtRp3417
(dp3418
g73
(dp3419
sg82
g3086
sg75
(lp3420
g68
(g89
g70
NtRp3421
(dp3422
g73
(dp3423
g93
g94
ssg82
g3417
sg75
(lp3424
S'generic_patterns'
p3425
asbag68
(g89
g70
NtRp3426
(dp3427
g73
(dp3428
g100
g101
ssg82
g3417
sg75
(lp3429
S':'
asbag68
(g89
g70
NtRp3430
(dp3431
g73
(dp3432
sg82
g3417
sg75
(lp3433
g68
(g69
g70
NtRp3434
(dp3435
g73
(dp3436
g81
I5
ssg82
g3430
sg75
(lp3437
g68
(g77
g70
NtRp3438
(dp3439
g73
(dp3440
g81
I4
ssg82
Nsg75
(lp3441
g68
(g84
g70
NtRp3442
(dp3443
g73
(dp3444
sg82
g3438
sg75
(lp3445
g68
(g89
g70
NtRp3446
(dp3447
g73
(dp3448
sg82
g3442
sg75
(lp3449
g68
(g69
g70
NtRp3450
(dp3451
g73
(dp3452
g81
I4
ssg82
g3446
sg75
(lp3453
S'*'
asbasbasbasbasbasbasbag68
(g84
g70
NtRp3454
(dp3455
g73
(dp3456
sg82
g3086
sg75
(lp3457
g68
(g89
g70
NtRp3458
(dp3459
g73
(dp3460
g93
g94
ssg82
g3454
sg75
(lp3461
S'headers'
p3462
asbag68
(g89
g70
NtRp3463
(dp3464
g73
(dp3465
g100
g101
ssg82
g3454
sg75
(lp3466
S':'
asbag68
(g89
g70
NtRp3467
(dp3468
g73
(dp3469
sg82
g3454
sg75
(lp3470
g68
(g69
g70
NtRp3471
(dp3472
g73
(dp3473
g81
I5
ssg82
g3467
sg75
(lp3474
g68
(g77
g70
NtRp3475
(dp3476
g73
(dp3477
g81
I4
ssg82
Nsg75
(lp3478
g68
(g84
g70
NtRp3479
(dp3480
g73
(dp3481
sg82
g3475
sg75
(lp3482
g68
(g89
g70
NtRp3483
(dp3484
g73
(dp3485
g93
g94
ssg82
g3479
sg75
(lp3486
S'Cache-Control'
p3487
asbag68
(g89
g70
NtRp3488
(dp3489
g73
(dp3490
g100
g101
ssg82
g3479
sg75
(lp3491
S':'
asbag68
(g89
g70
NtRp3492
(dp3493
g73
(dp3494
sg82
g3479
sg75
(lp3495
g68
(g69
g70
NtRp3496
(dp3497
g73
(dp3498
g81
I4
ssg82
g3492
sg75
(lp3499
S'no-store, no-cache, must-revalidate, post-check=0, pre-check=0'
p3500
asbasbasbag68
(g84
g70
NtRp3501
(dp3502
g73
(dp3503
sg82
g3475
sg75
(lp3504
g68
(g89
g70
NtRp3505
(dp3506
g73
(dp3507
g93
g94
ssg82
g3501
sg75
(lp3508
S'Content-Type'
p3509
asbag68
(g89
g70
NtRp3510
(dp3511
g73
(dp3512
g100
g101
ssg82
g3501
sg75
(lp3513
S':'
asbag68
(g89
g70
NtRp3514
(dp3515
g73
(dp3516
sg82
g3501
sg75
(lp3517
g68
(g69
g70
NtRp3518
(dp3519
g73
(dp3520
g81
I4
ssg82
g3514
sg75
(lp3521
S'text/html; charset=utf-8'
p3522
asbasbasbag68
(g84
g70
NtRp3523
(dp3524
g73
(dp3525
sg82
g3475
sg75
(lp3526
g68
(g89
g70
NtRp3527
(dp3528
g73
(dp3529
g93
g94
ssg82
g3523
sg75
(lp3530
S'Expires'
p3531
asbag68
(g89
g70
NtRp3532
(dp3533
g73
(dp3534
g100
g101
ssg82
g3523
sg75
(lp3535
S':'
asbag68
(g89
g70
NtRp3536
(dp3537
g73
(dp3538
sg82
g3523
sg75
(lp3539
g68
(g69
g70
NtRp3540
(dp3541
g73
(dp3542
g81
I4
ssg82
g3536
sg75
(lp3543
S'Wed, 02 Sep 2015 12:09:35 GMT'
p3544
asbasbasbag68
(g84
g70
NtRp3545
(dp3546
g73
(dp3547
sg82
g3475
sg75
(lp3548
g68
(g89
g70
NtRp3549
(dp3550
g73
(dp3551
g93
g94
ssg82
g3545
sg75
(lp3552
S'Pragma'
p3553
asbag68
(g89
g70
NtRp3554
(dp3555
g73
(dp3556
g100
g101
ssg82
g3545
sg75
(lp3557
S':'
asbag68
(g89
g70
NtRp3558
(dp3559
g73
(dp3560
sg82
g3545
sg75
(lp3561
g68
(g69
g70
NtRp3562
(dp3563
g73
(dp3564
g81
I4
ssg82
g3558
sg75
(lp3565
S'no-cache'
p3566
asbasbasbag68
(g84
g70
NtRp3567
(dp3568
g73
(dp3569
sg82
g3475
sg75
(lp3570
g68
(g89
g70
NtRp3571
(dp3572
g73
(dp3573
g93
g94
ssg82
g3567
sg75
(lp3574
S'X-Powered-By'
p3575
asbag68
(g89
g70
NtRp3576
(dp3577
g73
(dp3578
g100
g101
ssg82
g3567
sg75
(lp3579
S':'
asbag68
(g89
g70
NtRp3580
(dp3581
g73
(dp3582
sg82
g3567
sg75
(lp3583
g68
(g69
g70
NtRp3584
(dp3585
g73
(dp3586
g81
I4
ssg82
g3580
sg75
(lp3587
S'web2py'
p3588
asbasbasbasbasbasbasbag68
(g84
g70
NtRp3589
(dp3590
g73
(dp3591
sg82
g3086
sg75
(lp3592
g68
(g89
g70
NtRp3593
(dp3594
g73
(dp3595
g93
g94
ssg82
g3589
sg75
(lp3596
S'menu'
p3597
asbag68
(g89
g70
NtRp3598
(dp3599
g73
(dp3600
g100
g101
ssg82
g3589
sg75
(lp3601
S':'
asbag68
(g89
g70
NtRp3602
(dp3603
g73
(dp3604
sg82
g3589
sg75
(lp3605
g68
(g69
g70
NtRp3606
(dp3607
g73
(dp3608
g81
I5
ssg82
g3602
sg75
(lp3609
g68
(g77
g70
NtRp3610
(dp3611
g73
(dp3612
g81
I4
ssg82
Nsg75
(lp3613
g68
(g84
g70
NtRp3614
(dp3615
g73
(dp3616
sg82
g3610
sg75
(lp3617
g68
(g89
g70
NtRp3618
(dp3619
g73
(dp3620
sg82
g3614
sg75
(lp3621
g68
(g69
g70
NtRp3622
(dp3623
g73
(dp3624
g81
I4
ssg82
g3618
sg75
(lp3625
g68
(g77
g70
NtRp3626
(dp3627
g73
(dp3628
g81
I3
ssg82
Nsg75
(lp3629
g68
(g84
g70
NtRp3630
(dp3631
g73
(dp3632
sg82
g3626
sg75
(lp3633
g68
(g89
g70
NtRp3634
(dp3635
g73
(dp3636
sg82
g3630
sg75
(lp3637
g68
(g69
g70
NtRp3638
(dp3639
g73
(dp3640
g81
I3
ssg82
g3634
sg75
(lp3641
cgluon.languages
lazyT_unpickle
p3642
(S't\x04\x00\x00\x00Home'
tRp3643
asbasbasbag68
(g84
g70
NtRp3644
(dp3645
g73
(dp3646
sg82
g3626
sg75
(lp3647
g68
(g89
g70
NtRp3648
(dp3649
g73
(dp3650
sg82
g3644
sg75
(lp3651
g68
(g69
g70
NtRp3652
(dp3653
g73
(dp3654
g81
I3
ssg82
g3648
sg75
(lp3655
g111
asbasbasbag68
(g84
g70
NtRp3656
(dp3657
g73
(dp3658
sg82
g3626
sg75
(lp3659
g68
(g89
g70
NtRp3660
(dp3661
g73
(dp3662
sg82
g3656
sg75
(lp3663
g68
(g69
g70
NtRp3664
(dp3665
g73
(dp3666
g81
I3
ssg82
g3660
sg75
(lp3667
S'/Search_Engine/default/index'
p3668
asbasbasbag68
(g84
g70
NtRp3669
(dp3670
g73
(dp3671
sg82
g3626
sg75
(lp3672
g68
(g89
g70
NtRp3673
(dp3674
g73
(dp3675
sg82
g3669
sg75
(lp3676
g68
(g69
g70
NtRp3677
(dp3678
g73
(dp3679
g81
I3
ssg82
g3673
sg75
(lp3680
g68
(g77
g70
NtRp3681
(dp3682
g73
(dp3683
g81
I2
ssg82
Nsg75
(lp3684
sbasbasbasbasbasbasbasbag68
(g84
g70
NtRp3685
(dp3686
g73
(dp3687
sg82
g3610
sg75
(lp3688
g68
(g89
g70
NtRp3689
(dp3690
g73
(dp3691
sg82
g3685
sg75
(lp3692
g68
(g69
g70
NtRp3693
(dp3694
g73
(dp3695
g81
I4
ssg82
g3689
sg75
(lp3696
g68
(g77
g70
NtRp3697
(dp3698
g73
(dp3699
g81
I3
ssg82
Nsg75
(lp3700
g68
(g84
g70
NtRp3701
(dp3702
g73
(dp3703
sg82
g3697
sg75
(lp3704
g68
(g89
g70
NtRp3705
(dp3706
g73
(dp3707
sg82
g3701
sg75
(lp3708
g68
(g69
g70
NtRp3709
(dp3710
g73
(dp3711
g81
I3
ssg82
g3705
sg75
(lp3712
g68
(cgluon.html
SPAN
p3713
g70
NtRp3714
(dp3715
g73
(dp3716
g93
S'color:yellow'
p3717
ssg82
Nsg75
(lp3718
g3588
asbasbasbasbag68
(g84
g70
NtRp3719
(dp3720
g73
(dp3721
sg82
g3697
sg75
(lp3722
g68
(g89
g70
NtRp3723
(dp3724
g73
(dp3725
sg82
g3719
sg75
(lp3726
g68
(g69
g70
NtRp3727
(dp3728
g73
(dp3729
g81
I3
ssg82
g3723
sg75
(lp3730
g111
asbasbasbag68
(g84
g70
NtRp3731
(dp3732
g73
(dp3733
sg82
g3697
sg75
(lp3734
g68
(g89
g70
NtRp3735
(dp3736
g73
(dp3737
sg82
g3731
sg75
(lp3738
g68
(g69
g70
NtRp3739
(dp3740
g73
(dp3741
g81
I3
ssg82
g3735
sg75
(lp3742
S'None'
p3743
asbasbasbag68
(g84
g70
NtRp3744
(dp3745
g73
(dp3746
sg82
g3697
sg75
(lp3747
g68
(g89
g70
NtRp3748
(dp3749
g73
(dp3750
sg82
g3744
sg75
(lp3751
g68
(g69
g70
NtRp3752
(dp3753
g73
(dp3754
g81
I3
ssg82
g3748
sg75
(lp3755
g68
(g77
g70
NtRp3756
(dp3757
g73
(dp3758
g81
I2
ssg82
Nsg75
(lp3759
g68
(g84
g70
NtRp3760
(dp3761
g73
(dp3762
sg82
g3756
sg75
(lp3763
g68
(g89
g70
NtRp3764
(dp3765
g73
(dp3766
sg82
g3760
sg75
(lp3767
g68
(g69
g70
NtRp3768
(dp3769
g73
(dp3770
g81
I2
ssg82
g3764
sg75
(lp3771
g68
(g77
g70
NtRp3772
(dp3773
g73
(dp3774
g81
I1
ssg82
Nsg75
(lp3775
g68
(g84
g70
NtRp3776
(dp3777
g73
(dp3778
sg82
g3772
sg75
(lp3779
g68
(g89
g70
NtRp3780
(dp3781
g73
(dp3782
sg82
g3776
sg75
(lp3783
g68
(g69
g70
NtRp3784
(dp3785
g73
(dp3786
g81
I1
ssg82
g3780
sg75
(lp3787
g3642
(S's\x08\x00\x00\x00My Sites'
tRp3788
asbasbasbag68
(g84
g70
NtRp3789
(dp3790
g73
(dp3791
sg82
g3772
sg75
(lp3792
g68
(g89
g70
NtRp3793
(dp3794
g73
(dp3795
sg82
g3789
sg75
(lp3796
g68
(g69
g70
NtRp3797
(dp3798
g73
(dp3799
g81
I1
ssg82
g3793
sg75
(lp3800
I00
asbasbasbag68
(g84
g70
NtRp3801
(dp3802
g73
(dp3803
sg82
g3772
sg75
(lp3804
g68
(g89
g70
NtRp3805
(dp3806
g73
(dp3807
sg82
g3801
sg75
(lp3808
g68
(g69
g70
NtRp3809
(dp3810
g73
(dp3811
g81
I1
ssg82
g3805
sg75
(lp3812
S'/admin/default/site'
p3813
asbasbasbasbasbasbasbag68
(g84
g70
NtRp3814
(dp3815
g73
(dp3816
sg82
g3756
sg75
(lp3817
g68
(g89
g70
NtRp3818
(dp3819
g73
(dp3820
sg82
g3814
sg75
(lp3821
g68
(g69
g70
NtRp3822
(dp3823
g73
(dp3824
g81
I2
ssg82
g3818
sg75
(lp3825
g68
(g77
g70
NtRp3826
(dp3827
g73
(dp3828
g81
I1
ssg82
Nsg75
(lp3829
g68
(g84
g70
NtRp3830
(dp3831
g73
(dp3832
sg82
g3826
sg75
(lp3833
g68
(g89
g70
NtRp3834
(dp3835
g73
(dp3836
sg82
g3830
sg75
(lp3837
g68
(g69
g70
NtRp3838
(dp3839
g73
(dp3840
g81
I1
ssg82
g3834
sg75
(lp3841
g3642
(S's\x08\x00\x00\x00This App'
tRp3842
asbasbasbag68
(g84
g70
NtRp3843
(dp3844
g73
(dp3845
sg82
g3826
sg75
(lp3846
g68
(g89
g70
NtRp3847
(dp3848
g73
(dp3849
sg82
g3843
sg75
(lp3850
g68
(g69
g70
NtRp3851
(dp3852
g73
(dp3853
g81
I1
ssg82
g3847
sg75
(lp3854
I00
asbasbasbag68
(g84
g70
NtRp3855
(dp3856
g73
(dp3857
sg82
g3826
sg75
(lp3858
g68
(g89
g70
NtRp3859
(dp3860
g73
(dp3861
sg82
g3855
sg75
(lp3862
g68
(g69
g70
NtRp3863
(dp3864
g73
(dp3865
g81
I1
ssg82
g3859
sg75
(lp3866
S'/admin/default/design/Search_Engine'
p3867
asbasbasbag68
(g84
g70
NtRp3868
(dp3869
g73
(dp3870
sg82
g3826
sg75
(lp3871
g68
(g89
g70
NtRp3872
(dp3873
g73
(dp3874
sg82
g3868
sg75
(lp3875
g68
(g69
g70
NtRp3876
(dp3877
g73
(dp3878
g81
I1
ssg82
g3872
sg75
(lp3879
(lp3880
(g3642
(S't\n\x00\x00\x00Controller'
tRp3881
I00
S'/admin/default/edit/Search_Engine/controllers/search.py'
tp3882
a(g3642
(S't\x04\x00\x00\x00View'
tRp3883
I00
S'/admin/default/edit/Search_Engine/views/search/index.html'
tp3884
a(g3642
(S't\x06\x00\x00\x00Layout'
tRp3885
I00
S'/admin/default/edit/Search_Engine/views/layout.html'
tp3886
a(g3642
(S't\n\x00\x00\x00Stylesheet'
tRp3887
I00
S'/admin/default/edit/Search_Engine/static/css/web2py.css'
tp3888
a(g3642
(S's\x08\x00\x00\x00DB Model'
tRp3889
I00
S'/admin/default/edit/Search_Engine/models/db.py'
tp3890
a(g3642
(S's\n\x00\x00\x00Menu Model'
tRp3891
I00
S'/admin/default/edit/Search_Engine/models/menu.py'
tp3892
a(g3642
(S't\x08\x00\x00\x00Database'
tRp3893
I00
S'/Search_Engine/appadmin/index'
tp3894
a(g3642
(S't\x06\x00\x00\x00Errors'
tRp3895
I00
S'/admin/default/errors/Search_Engine'
tp3896
a(g3642
(S't\x05\x00\x00\x00About'
tRp3897
I00
S'/admin/default/about/Search_Engine'
tp3898
aasbasbasbasbasbasbasbag68
(g84
g70
NtRp3899
(dp3900
g73
(dp3901
sg82
g3756
sg75
(lp3902
g68
(g89
g70
NtRp3903
(dp3904
g73
(dp3905
sg82
g3899
sg75
(lp3906
g68
(g69
g70
NtRp3907
(dp3908
g73
(dp3909
g81
I2
ssg82
g3903
sg75
(lp3910
g68
(g77
g70
NtRp3911
(dp3912
g73
(dp3913
g81
I1
ssg82
Nsg75
(lp3914
g68
(g84
g70
NtRp3915
(dp3916
g73
(dp3917
sg82
g3911
sg75
(lp3918
g68
(g89
g70
NtRp3919
(dp3920
g73
(dp3921
sg82
g3915
sg75
(lp3922
g68
(g69
g70
NtRp3923
(dp3924
g73
(dp3925
g81
I1
ssg82
g3919
sg75
(lp3926
S'web2py.com'
p3927
asbasbasbag68
(g84
g70
NtRp3928
(dp3929
g73
(dp3930
sg82
g3911
sg75
(lp3931
g68
(g89
g70
NtRp3932
(dp3933
g73
(dp3934
sg82
g3928
sg75
(lp3935
g68
(g69
g70
NtRp3936
(dp3937
g73
(dp3938
g81
I1
ssg82
g3932
sg75
(lp3939
I00
asbasbasbag68
(g84
g70
NtRp3940
(dp3941
g73
(dp3942
sg82
g3911
sg75
(lp3943
g68
(g89
g70
NtRp3944
(dp3945
g73
(dp3946
sg82
g3940
sg75
(lp3947
g68
(g69
g70
NtRp3948
(dp3949
g73
(dp3950
g81
I1
ssg82
g3944
sg75
(lp3951
S'http://www.web2py.com'
p3952
asbasbasbag68
(g84
g70
NtRp3953
(dp3954
g73
(dp3955
sg82
g3911
sg75
(lp3956
g68
(g89
g70
NtRp3957
(dp3958
g73
(dp3959
sg82
g3953
sg75
(lp3960
g68
(g69
g70
NtRp3961
(dp3962
g73
(dp3963
g81
I1
ssg82
g3957
sg75
(lp3964
(lp3965
(g3642
(S't\x08\x00\x00\x00Download'
tRp3966
I00
S'http://www.web2py.com/examples/default/download'
p3967
tp3968
a(g3642
(S't\x07\x00\x00\x00Support'
tRp3969
I00
S'http://www.web2py.com/examples/default/support'
p3970
tp3971
a(g3642
(S't\x04\x00\x00\x00Demo'
tRp3972
I00
S'http://web2py.com/demo_admin'
p3973
tp3974
a(g3642
(S's\x0e\x00\x00\x00Quick Examples'
tRp3975
I00
S'http://web2py.com/examples/default/examples'
p3976
tp3977
a(g3642
(S't\x03\x00\x00\x00FAQ'
tRp3978
I00
S'http://web2py.com/AlterEgo'
p3979
tp3980
a(g3642
(S't\x06\x00\x00\x00Videos'
tRp3981
I00
S'http://www.web2py.com/examples/default/videos/'
p3982
tp3983
a(g3642
(S's\x11\x00\x00\x00Free Applications'
tRp3984
I00
S'http://web2py.com/appliances'
p3985
tp3986
a(g3642
(S't\x07\x00\x00\x00Plugins'
tRp3987
I00
S'http://web2py.com/plugins'
p3988
tp3989
a(g3642
(S't\x07\x00\x00\x00Layouts'
tRp3990
I00
S'http://web2py.com/layouts'
p3991
tp3992
a(g3642
(S't\x07\x00\x00\x00Recipes'
tRp3993
I00
S'http://web2pyslices.com/'
p3994
tp3995
a(g3642
(S't\x08\x00\x00\x00Semantic'
tRp3996
I00
S'http://web2py.com/semantic'
p3997
tp3998
aasbasbasbasbasbasbasbag68
(g84
g70
NtRp3999
(dp4000
g73
(dp4001
sg82
g3756
sg75
(lp4002
g68
(g89
g70
NtRp4003
(dp4004
g73
(dp4005
sg82
g3999
sg75
(lp4006
g68
(g69
g70
NtRp4007
(dp4008
g73
(dp4009
g81
I2
ssg82
g4003
sg75
(lp4010
g68
(g77
g70
NtRp4011
(dp4012
g73
(dp4013
g81
I1
ssg82
Nsg75
(lp4014
g68
(g84
g70
NtRp4015
(dp4016
g73
(dp4017
sg82
g4011
sg75
(lp4018
g68
(g89
g70
NtRp4019
(dp4020
g73
(dp4021
sg82
g4015
sg75
(lp4022
g68
(g69
g70
NtRp4023
(dp4024
g73
(dp4025
g81
I1
ssg82
g4019
sg75
(lp4026
g3642
(S't\r\x00\x00\x00Documentation'
tRp4027
asbasbasbag68
(g84
g70
NtRp4028
(dp4029
g73
(dp4030
sg82
g4011
sg75
(lp4031
g68
(g89
g70
NtRp4032
(dp4033
g73
(dp4034
sg82
g4028
sg75
(lp4035
g68
(g69
g70
NtRp4036
(dp4037
g73
(dp4038
g81
I1
ssg82
g4032
sg75
(lp4039
I00
asbasbasbag68
(g84
g70
NtRp4040
(dp4041
g73
(dp4042
sg82
g4011
sg75
(lp4043
g68
(g89
g70
NtRp4044
(dp4045
g73
(dp4046
sg82
g4040
sg75
(lp4047
g68
(g69
g70
NtRp4048
(dp4049
g73
(dp4050
g81
I1
ssg82
g4044
sg75
(lp4051
S'http://www.web2py.com/book'
p4052
asbasbasbag68
(g84
g70
NtRp4053
(dp4054
g73
(dp4055
sg82
g4011
sg75
(lp4056
g68
(g89
g70
NtRp4057
(dp4058
g73
(dp4059
sg82
g4053
sg75
(lp4060
g68
(g69
g70
NtRp4061
(dp4062
g73
(dp4063
g81
I1
ssg82
g4057
sg75
(lp4064
(lp4065
(g3642
(S't\x07\x00\x00\x00Preface'
tRp4066
I00
S'http://www.web2py.com/book/default/chapter/00'
p4067
tp4068
a(g3642
(S't\x0c\x00\x00\x00Introduction'
tRp4069
I00
S'http://www.web2py.com/book/default/chapter/01'
p4070
tp4071
a(g3642
(S't\x06\x00\x00\x00Python'
tRp4072
I00
S'http://www.web2py.com/book/default/chapter/02'
p4073
tp4074
a(g3642
(S't\x08\x00\x00\x00Overview'
tRp4075
I00
S'http://www.web2py.com/book/default/chapter/03'
p4076
tp4077
a(g3642
(S's\x08\x00\x00\x00The Core'
tRp4078
I00
S'http://www.web2py.com/book/default/chapter/04'
p4079
tp4080
a(g3642
(S's\t\x00\x00\x00The Views'
tRp4081
I00
S'http://www.web2py.com/book/default/chapter/05'
p4082
tp4083
a(g3642
(S't\x08\x00\x00\x00Database'
tRp4084
I00
S'http://www.web2py.com/book/default/chapter/06'
p4085
tp4086
a(g3642
(S's\x14\x00\x00\x00Forms and Validators'
tRp4087
I00
S'http://www.web2py.com/book/default/chapter/07'
p4088
tp4089
a(g3642
(S's\r\x00\x00\x00Email and SMS'
tRp4090
I00
S'http://www.web2py.com/book/default/chapter/08'
p4091
tp4092
a(g3642
(S's\x0e\x00\x00\x00Access Control'
tRp4093
I00
S'http://www.web2py.com/book/default/chapter/09'
p4094
tp4095
a(g3642
(S't\x08\x00\x00\x00Services'
tRp4096
I00
S'http://www.web2py.com/book/default/chapter/10'
p4097
tp4098
a(g3642
(S's\x0c\x00\x00\x00Ajax Recipes'
tRp4099
I00
S'http://www.web2py.com/book/default/chapter/11'
p4100
tp4101
a(g3642
(S's\x16\x00\x00\x00Components and Plugins'
tRp4102
I00
S'http://www.web2py.com/book/default/chapter/12'
p4103
tp4104
a(g3642
(S's\x12\x00\x00\x00Deployment Recipes'
tRp4105
I00
S'http://www.web2py.com/book/default/chapter/13'
p4106
tp4107
a(g3642
(S's\r\x00\x00\x00Other Recipes'
tRp4108
I00
S'http://www.web2py.com/book/default/chapter/14'
p4109
tp4110
a(g3642
(S's\r\x00\x00\x00Buy this book'
tRp4111
I00
S'http://stores.lulu.com/web2py'
p4112
tp4113
aasbasbasbasbasbasbasbag68
(g84
g70
NtRp4114
(dp4115
g73
(dp4116
sg82
g3756
sg75
(lp4117
g68
(g89
g70
NtRp4118
(dp4119
g73
(dp4120
sg82
g4114
sg75
(lp4121
g68
(g69
g70
NtRp4122
(dp4123
g73
(dp4124
g81
I2
ssg82
g4118
sg75
(lp4125
g68
(g77
g70
NtRp4126
(dp4127
g73
(dp4128
g81
I1
ssg82
Nsg75
(lp4129
g68
(g84
g70
NtRp4130
(dp4131
g73
(dp4132
sg82
g4126
sg75
(lp4133
g68
(g89
g70
NtRp4134
(dp4135
g73
(dp4136
sg82
g4130
sg75
(lp4137
g68
(g69
g70
NtRp4138
(dp4139
g73
(dp4140
g81
I1
ssg82
g4134
sg75
(lp4141
g3642
(S't\t\x00\x00\x00Community'
tRp4142
asbasbasbag68
(g84
g70
NtRp4143
(dp4144
g73
(dp4145
sg82
g4126
sg75
(lp4146
g68
(g89
g70
NtRp4147
(dp4148
g73
(dp4149
sg82
g4143
sg75
(lp4150
g68
(g69
g70
NtRp4151
(dp4152
g73
(dp4153
g81
I1
ssg82
g4147
sg75
(lp4154
I00
asbasbasbag68
(g84
g70
NtRp4155
(dp4156
g73
(dp4157
sg82
g4126
sg75
(lp4158
g68
(g89
g70
NtRp4159
(dp4160
g73
(dp4161
sg82
g4155
sg75
(lp4162
g68
(g69
g70
NtRp4163
(dp4164
g73
(dp4165
g81
I1
ssg82
g4159
sg75
(lp4166
Nasbasbasbag68
(g84
g70
NtRp4167
(dp4168
g73
(dp4169
sg82
g4126
sg75
(lp4170
g68
(g89
g70
NtRp4171
(dp4172
g73
(dp4173
sg82
g4167
sg75
(lp4174
g68
(g69
g70
NtRp4175
(dp4176
g73
(dp4177
g81
I1
ssg82
g4171
sg75
(lp4178
(lp4179
(g3642
(S't\x06\x00\x00\x00Groups'
tRp4180
I00
S'http://www.web2py.com/examples/default/usergroups'
p4181
tp4182
a(g3642
(S't\x07\x00\x00\x00Twitter'
tRp4183
I00
S'http://twitter.com/web2py'
p4184
tp4185
a(g3642
(S's\t\x00\x00\x00Live Chat'
tRp4186
I00
S'http://webchat.freenode.net/?channels=web2py'
p4187
tp4188
aasbasbasbasbasbasbasbag68
(g84
g70
NtRp4189
(dp4190
g73
(dp4191
sg82
g3756
sg75
(lp4192
g68
(g89
g70
NtRp4193
(dp4194
g73
(dp4195
sg82
g4189
sg75
(lp4196
g68
(g69
g70
NtRp4197
(dp4198
g73
(dp4199
g81
I2
ssg82
g4193
sg75
(lp4200
g68
(g77
g70
NtRp4201
(dp4202
g73
(dp4203
g81
I1
ssg82
Nsg75
(lp4204
g68
(g84
g70
NtRp4205
(dp4206
g73
(dp4207
sg82
g4201
sg75
(lp4208
g68
(g89
g70
NtRp4209
(dp4210
g73
(dp4211
sg82
g4205
sg75
(lp4212
g68
(g69
g70
NtRp4213
(dp4214
g73
(dp4215
g81
I1
ssg82
g4209
sg75
(lp4216
g3642
(S't\x07\x00\x00\x00Plugins'
tRp4217
asbasbasbag68
(g84
g70
NtRp4218
(dp4219
g73
(dp4220
sg82
g4201
sg75
(lp4221
g68
(g89
g70
NtRp4222
(dp4223
g73
(dp4224
sg82
g4218
sg75
(lp4225
g68
(g69
g70
NtRp4226
(dp4227
g73
(dp4228
g81
I1
ssg82
g4222
sg75
(lp4229
I00
asbasbasbag68
(g84
g70
NtRp4230
(dp4231
g73
(dp4232
sg82
g4201
sg75
(lp4233
g68
(g89
g70
NtRp4234
(dp4235
g73
(dp4236
sg82
g4230
sg75
(lp4237
g68
(g69
g70
NtRp4238
(dp4239
g73
(dp4240
g81
I1
ssg82
g4234
sg75
(lp4241
Nasbasbasbag68
(g84
g70
NtRp4242
(dp4243
g73
(dp4244
sg82
g4201
sg75
(lp4245
g68
(g89
g70
NtRp4246
(dp4247
g73
(dp4248
sg82
g4242
sg75
(lp4249
g68
(g69
g70
NtRp4250
(dp4251
g73
(dp4252
g81
I1
ssg82
g4246
sg75
(lp4253
(lp4254
(S'plugin_wiki'
p4255
I00
S'http://web2py.com/examples/default/download'
p4256
tp4257
a(g3642
(S's\r\x00\x00\x00Other Plugins'
tRp4258
I00
g3988
tp4259
a(g3642
(S's\x0e\x00\x00\x00Layout Plugins'
tRp4260
I00
g3991
tp4261
aasbasbasbasbasbasbasbasbasbasbasbasbasbasbasbasbasbasbasbag68
(g84
g70
NtRp4262
(dp4263
g73
(dp4264
sg82
g3086
sg75
(lp4265
g68
(g89
g70
NtRp4266
(dp4267
g73
(dp4268
g93
g94
ssg82
g4262
sg75
(lp4269
S'meta'
p4270
asbag68
(g89
g70
NtRp4271
(dp4272
g73
(dp4273
g100
g101
ssg82
g4262
sg75
(lp4274
S':'
asbag68
(g89
g70
NtRp4275
(dp4276
g73
(dp4277
sg82
g4262
sg75
(lp4278
g68
(g69
g70
NtRp4279
(dp4280
g73
(dp4281
g81
I5
ssg82
g4275
sg75
(lp4282
g68
(g77
g70
NtRp4283
(dp4284
g73
(dp4285
g81
I4
ssg82
Nsg75
(lp4286
g68
(g84
g70
NtRp4287
(dp4288
g73
(dp4289
sg82
g4283
sg75
(lp4290
g68
(g89
g70
NtRp4291
(dp4292
g73
(dp4293
g93
g94
ssg82
g4287
sg75
(lp4294
S'author'
p4295
asbag68
(g89
g70
NtRp4296
(dp4297
g73
(dp4298
g100
g101
ssg82
g4287
sg75
(lp4299
S':'
asbag68
(g89
g70
NtRp4300
(dp4301
g73
(dp4302
sg82
g4287
sg75
(lp4303
g68
(g69
g70
NtRp4304
(dp4305
g73
(dp4306
g81
I4
ssg82
g4300
sg75
(lp4307
S'Your Name <you@example.com>'
p4308
asbasbasbag68
(g84
g70
NtRp4309
(dp4310
g73
(dp4311
sg82
g4283
sg75
(lp4312
g68
(g89
g70
NtRp4313
(dp4314
g73
(dp4315
g93
g94
ssg82
g4309
sg75
(lp4316
S'copyright'
p4317
asbag68
(g89
g70
NtRp4318
(dp4319
g73
(dp4320
g100
g101
ssg82
g4309
sg75
(lp4321
S':'
asbag68
(g89
g70
NtRp4322
(dp4323
g73
(dp4324
sg82
g4309
sg75
(lp4325
g68
(g69
g70
NtRp4326
(dp4327
g73
(dp4328
g81
I4
ssg82
g4322
sg75
(lp4329
S'Copyright 2011'
p4330
asbasbasbag68
(g84
g70
NtRp4331
(dp4332
g73
(dp4333
sg82
g4283
sg75
(lp4334
g68
(g89
g70
NtRp4335
(dp4336
g73
(dp4337
g93
g94
ssg82
g4331
sg75
(lp4338
S'description'
p4339
asbag68
(g89
g70
NtRp4340
(dp4341
g73
(dp4342
g100
g101
ssg82
g4331
sg75
(lp4343
S':'
asbag68
(g89
g70
NtRp4344
(dp4345
g73
(dp4346
sg82
g4331
sg75
(lp4347
g68
(g69
g70
NtRp4348
(dp4349
g73
(dp4350
g81
I4
ssg82
g4344
sg75
(lp4351
S'a cool new app'
p4352
asbasbasbag68
(g84
g70
NtRp4353
(dp4354
g73
(dp4355
sg82
g4283
sg75
(lp4356
g68
(g89
g70
NtRp4357
(dp4358
g73
(dp4359
g93
g94
ssg82
g4353
sg75
(lp4360
S'generator'
p4361
asbag68
(g89
g70
NtRp4362
(dp4363
g73
(dp4364
g100
g101
ssg82
g4353
sg75
(lp4365
S':'
asbag68
(g89
g70
NtRp4366
(dp4367
g73
(dp4368
sg82
g4353
sg75
(lp4369
g68
(g69
g70
NtRp4370
(dp4371
g73
(dp4372
g81
I4
ssg82
g4366
sg75
(lp4373
S'Web2py Web Framework'
p4374
asbasbasbag68
(g84
g70
NtRp4375
(dp4376
g73
(dp4377
sg82
g4283
sg75
(lp4378
g68
(g89
g70
NtRp4379
(dp4380
g73
(dp4381
g93
g94
ssg82
g4375
sg75
(lp4382
S'keywords'
p4383
asbag68
(g89
g70
NtRp4384
(dp4385
g73
(dp4386
g100
g101
ssg82
g4375
sg75
(lp4387
S':'
asbag68
(g89
g70
NtRp4388
(dp4389
g73
(dp4390
sg82
g4375
sg75
(lp4391
g68
(g69
g70
NtRp4392
(dp4393
g73
(dp4394
g81
I4
ssg82
g4388
sg75
(lp4395
S'web2py, python, framework'
p4396
asbasbasbasbasbasbasbag68
(g84
g70
NtRp4397
(dp4398
g73
(dp4399
sg82
g3086
sg75
(lp4400
g68
(g89
g70
NtRp4401
(dp4402
g73
(dp4403
g93
g94
ssg82
g4397
sg75
(lp4404
S'postprocessing'
p4405
asbag68
(g89
g70
NtRp4406
(dp4407
g73
(dp4408
g100
g101
ssg82
g4397
sg75
(lp4409
S':'
asbag68
(g89
g70
NtRp4410
(dp4411
g73
(dp4412
sg82
g4397
sg75
(lp4413
g68
(g69
g70
NtRp4414
(dp4415
g73
(dp4416
g81
I5
ssg82
g4410
sg75
(lp4417
g68
(g77
g70
NtRp4418
(dp4419
g73
(dp4420
g81
I4
ssg82
Nsg75
(lp4421
sbasbasbasbag68
(g84
g70
NtRp4422
(dp4423
g73
(dp4424
sg82
g3086
sg75
(lp4425
g68
(g89
g70
NtRp4426
(dp4427
g73
(dp4428
g93
g94
ssg82
g4422
sg75
(lp4429
S'session_file'
p4430
asbag68
(g89
g70
NtRp4431
(dp4432
g73
(dp4433
g100
g101
ssg82
g4422
sg75
(lp4434
S':'
asbag68
(g89
g70
NtRp4435
(dp4436
g73
(dp4437
sg82
g4422
sg75
(lp4438
g68
(g69
g70
NtRp4439
(dp4440
g73
(dp4441
g81
I5
ssg82
g4435
sg75
(lp4442
S"<open file '/home/shubham/web2py/applications/Search_Engine/sessions/127.0.0.1-a8b3258c-8c92-470f-be04-94c1da5429bc', mode 'rb+' at 0x7fbdb2e0b660>"
p4443
asbasbasbag68
(g84
g70
NtRp4444
(dp4445
g73
(dp4446
sg82
g3086
sg75
(lp4447
g68
(g89
g70
NtRp4448
(dp4449
g73
(dp4450
g93
g94
ssg82
g4444
sg75
(lp4451
S'session_filename'
p4452
asbag68
(g89
g70
NtRp4453
(dp4454
g73
(dp4455
g100
g101
ssg82
g4444
sg75
(lp4456
S':'
asbag68
(g89
g70
NtRp4457
(dp4458
g73
(dp4459
sg82
g4444
sg75
(lp4460
g68
(g69
g70
NtRp4461
(dp4462
g73
(dp4463
g81
I5
ssg82
g4457
sg75
(lp4464
S'/home/shubham/web2py/applications/Search_Engine/sessions/127.0.0.1-a8b3258c-8c92-470f-be04-94c1da5429bc'
p4465
asbasbasbag68
(g84
g70
NtRp4466
(dp4467
g73
(dp4468
sg82
g3086
sg75
(lp4469
g68
(g89
g70
NtRp4470
(dp4471
g73
(dp4472
g93
g94
ssg82
g4466
sg75
(lp4473
S'session_id'
p4474
asbag68
(g89
g70
NtRp4475
(dp4476
g73
(dp4477
g100
g101
ssg82
g4466
sg75
(lp4478
S':'
asbag68
(g89
g70
NtRp4479
(dp4480
g73
(dp4481
sg82
g4466
sg75
(lp4482
g68
(g69
g70
NtRp4483
(dp4484
g73
(dp4485
g81
I5
ssg82
g4479
sg75
(lp4486
S'127.0.0.1-a8b3258c-8c92-470f-be04-94c1da5429bc'
p4487
asbasbasbag68
(g84
g70
NtRp4488
(dp4489
g73
(dp4490
sg82
g3086
sg75
(lp4491
g68
(g89
g70
NtRp4492
(dp4493
g73
(dp4494
g93
g94
ssg82
g4488
sg75
(lp4495
S'session_id_name'
p4496
asbag68
(g89
g70
NtRp4497
(dp4498
g73
(dp4499
g100
g101
ssg82
g4488
sg75
(lp4500
S':'
asbag68
(g89
g70
NtRp4501
(dp4502
g73
(dp4503
sg82
g4488
sg75
(lp4504
g68
(g69
g70
NtRp4505
(dp4506
g73
(dp4507
g81
I5
ssg82
g4501
sg75
(lp4508
g3143
asbasbasbag68
(g84
g70
NtRp4509
(dp4510
g73
(dp4511
sg82
g3086
sg75
(lp4512
g68
(g89
g70
NtRp4513
(dp4514
g73
(dp4515
g93
g94
ssg82
g4509
sg75
(lp4516
S'session_locked'
p4517
asbag68
(g89
g70
NtRp4518
(dp4519
g73
(dp4520
g100
g101
ssg82
g4509
sg75
(lp4521
S':'
asbag68
(g89
g70
NtRp4522
(dp4523
g73
(dp4524
sg82
g4509
sg75
(lp4525
g68
(g69
g70
NtRp4526
(dp4527
g73
(dp4528
g81
I5
ssg82
g4522
sg75
(lp4529
g1688
asbasbasbag68
(g84
g70
NtRp4530
(dp4531
g73
(dp4532
sg82
g3086
sg75
(lp4533
g68
(g89
g70
NtRp4534
(dp4535
g73
(dp4536
g93
g94
ssg82
g4530
sg75
(lp4537
S'session_new'
p4538
asbag68
(g89
g70
NtRp4539
(dp4540
g73
(dp4541
g100
g101
ssg82
g4530
sg75
(lp4542
S':'
asbag68
(g89
g70
NtRp4543
(dp4544
g73
(dp4545
sg82
g4530
sg75
(lp4546
g68
(g69
g70
NtRp4547
(dp4548
g73
(dp4549
g81
I5
ssg82
g4543
sg75
(lp4550
g111
asbasbasbag68
(g84
g70
NtRp4551
(dp4552
g73
(dp4553
sg82
g3086
sg75
(lp4554
g68
(g89
g70
NtRp4555
(dp4556
g73
(dp4557
g93
g94
ssg82
g4551
sg75
(lp4558
S'status'
p4559
asbag68
(g89
g70
NtRp4560
(dp4561
g73
(dp4562
g100
g101
ssg82
g4551
sg75
(lp4563
S':'
asbag68
(g89
g70
NtRp4564
(dp4565
g73
(dp4566
sg82
g4551
sg75
(lp4567
g68
(g69
g70
NtRp4568
(dp4569
g73
(dp4570
g81
I5
ssg82
g4564
sg75
(lp4571
S'200'
p4572
asbasbasbag68
(g84
g70
NtRp4573
(dp4574
g73
(dp4575
sg82
g3086
sg75
(lp4576
g68
(g89
g70
NtRp4577
(dp4578
g73
(dp4579
g93
g94
ssg82
g4573
sg75
(lp4580
S'subtitle'
p4581
asbag68
(g89
g70
NtRp4582
(dp4583
g73
(dp4584
g100
g101
ssg82
g4573
sg75
(lp4585
S':'
asbag68
(g89
g70
NtRp4586
(dp4587
g73
(dp4588
sg82
g4573
sg75
(lp4589
g68
(g69
g70
NtRp4590
(dp4591
g73
(dp4592
g81
I5
ssg82
g4586
sg75
(lp4593
g3642
(S's\r\x00\x00\x00customize me!'
tRp4594
asbasbasbag68
(g84
g70
NtRp4595
(dp4596
g73
(dp4597
sg82
g3086
sg75
(lp4598
g68
(g89
g70
NtRp4599
(dp4600
g73
(dp4601
g93
g94
ssg82
g4595
sg75
(lp4602
S'title'
p4603
asbag68
(g89
g70
NtRp4604
(dp4605
g73
(dp4606
g100
g101
ssg82
g4595
sg75
(lp4607
S':'
asbag68
(g89
g70
NtRp4608
(dp4609
g73
(dp4610
sg82
g4595
sg75
(lp4611
g68
(g69
g70
NtRp4612
(dp4613
g73
(dp4614
g81
I5
ssg82
g4608
sg75
(lp4615
S'Search Engine'
p4616
asbasbasbag68
(g84
g70
NtRp4617
(dp4618
g73
(dp4619
sg82
g3086
sg75
(lp4620
g68
(g89
g70
NtRp4621
(dp4622
g73
(dp4623
g93
g94
ssg82
g4617
sg75
(lp4624
g2352
asbag68
(g89
g70
NtRp4625
(dp4626
g73
(dp4627
g100
g101
ssg82
g4617
sg75
(lp4628
S':'
asbag68
(g89
g70
NtRp4629
(dp4630
g73
(dp4631
sg82
g4617
sg75
(lp4632
g68
(g69
g70
NtRp4633
(dp4634
g73
(dp4635
g81
I5
ssg82
g4629
sg75
(lp4636
g2365
asbasbasbag68
(g84
g70
NtRp4637
(dp4638
g73
(dp4639
sg82
g3086
sg75
(lp4640
g68
(g89
g70
NtRp4641
(dp4642
g73
(dp4643
g93
g94
ssg82
g4637
sg75
(lp4644
S'view'
p4645
asbag68
(g89
g70
NtRp4646
(dp4647
g73
(dp4648
g100
g101
ssg82
g4637
sg75
(lp4649
S':'
asbag68
(g89
g70
NtRp4650
(dp4651
g73
(dp4652
sg82
g4637
sg75
(lp4653
g68
(g69
g70
NtRp4654
(dp4655
g73
(dp4656
g81
I5
ssg82
g4650
sg75
(lp4657
S'search/index.html'
p4658
asbasbasbasbasbsS'locals'
p4659
(dp4660
g4
S"'/home/shubham/web2py/applications/Search_Engine/views/search/index.html'"
p4661
sg6
S'\'response.write(\\\'<!DOCTYPE html>\\\\n<html>\\\\n<head>\\\\..."></script>\\\\n\\\\n</body>\\\\n</html>\\\\n\\\', escape=False)\''
p4662
sssS'traceback'
p4663
S'Traceback (most recent call last):\n  File "/usr/lib/pymodules/python2.7/gluon/restricted.py", line 204, in restricted\n    ccode = compile2(code,layer)\n  File "/usr/lib/pymodules/python2.7/gluon/restricted.py", line 189, in compile2\n    return compile(code.rstrip().replace(\'\\r\\n\',\'\\n\')+\'\\n\', layer, \'exec\')\n  File "/home/shubham/web2py/applications/Search_Engine/views/search/index.html", line 4\n    response.write(URL(\'static\',\'bootstrap/css/bootstrap.min.css\'i))\n                                                                 ^\nSyntaxError: invalid syntax\n'
p4664
s.