(dp1
S'output'
p2
S"<type 'exceptions.SyntaxError'> invalid syntax (search.py, line 4)"
p3
sS'layer'
p4
S'/home/shubham/web2py/applications/Search_Engine/controllers/search.py'
p5
sS'code'
p6
S'# coding: utf8\n# try something like\ndef index():\n    form=:w\n     return dict(message="hello from search.py")\n     \n\nresponse._vars=response._caller(index)\n'
p7
sS'snapshot'
p8
(dp9
S'exception'
p10
(dp11
S'__getslice__'
p12
S"<method-wrapper '__getslice__' of exceptions.SyntaxError object>"
p13
sS'text'
p14
S"'    form=:w\\n'"
p15
sS'__str__'
p16
S"<method-wrapper '__str__' of exceptions.SyntaxError object>"
p17
sS'__reduce__'
p18
S'<built-in method __reduce__ of exceptions.SyntaxError object>'
p19
sS'__dict__'
p20
S'{}'
p21
sS'__sizeof__'
p22
S'<built-in method __sizeof__ of exceptions.SyntaxError object>'
p23
sS'__init__'
p24
S"<method-wrapper '__init__' of exceptions.SyntaxError object>"
p25
sS'__setattr__'
p26
S"<method-wrapper '__setattr__' of exceptions.SyntaxError object>"
p27
sS'__reduce_ex__'
p28
S'<built-in method __reduce_ex__ of exceptions.SyntaxError object>'
p29
sS'__new__'
p30
S'<built-in method __new__ of type object>'
p31
sS'__format__'
p32
S'<built-in method __format__ of exceptions.SyntaxError object>'
p33
sS'__class__'
p34
S"<type 'exceptions.SyntaxError'>"
p35
sS'filename'
p36
S"'/home/shubham/web2py/applications/Search_Engine/controllers/search.py'"
p37
sS'lineno'
p38
S'4'
sS'msg'
p39
S"'invalid syntax'"
p40
sS'__doc__'
p41
S"'Invalid syntax.'"
p42
sS'__getitem__'
p43
S"<method-wrapper '__getitem__' of exceptions.SyntaxError object>"
p44
sS'__setstate__'
p45
S'<built-in method __setstate__ of exceptions.SyntaxError object>'
p46
sS'__getattribute__'
p47
S"<method-wrapper '__getattribute__' of exceptions.SyntaxError object>"
p48
sS'print_file_and_line'
p49
S'None'
p50
sS'args'
p51
S"('invalid syntax', ('/home/shubham/web2py/applications/Search_Engine/controllers/search.py', 4, 10, '    form=:w\\n'))"
p52
sS'__subclasshook__'
p53
S'<built-in method __subclasshook__ of type object>'
p54
sS'offset'
p55
S'10'
p56
sS'__unicode__'
p57
S'<built-in method __unicode__ of exceptions.SyntaxError object>'
p58
sS'__delattr__'
p59
S"<method-wrapper '__delattr__' of exceptions.SyntaxError object>"
p60
sS'__repr__'
p61
S"<method-wrapper '__repr__' of exceptions.SyntaxError object>"
p62
sS'__hash__'
p63
S"<method-wrapper '__hash__' of exceptions.SyntaxError object>"
p64
ssS'evalue'
p65
S'invalid syntax (search.py, line 4)'
p66
sS'request'
p67
ccopy_reg
_reconstructor
p68
(cgluon.html
BEAUTIFY
p69
c__builtin__
object
p70
NtRp71
(dp72
S'attributes'
p73
(dp74
sS'components'
p75
(lp76
g68
(cgluon.html
TABLE
p77
g70
NtRp78
(dp79
g73
(dp80
S'level'
p81
I5
ssS'parent'
p82
Nsg75
(lp83
g68
(cgluon.html
TR
p84
g70
NtRp85
(dp86
g73
(dp87
sg82
g78
sg75
(lp88
g68
(cgluon.html
TD
p89
g70
NtRp90
(dp91
g73
(dp92
S'_style'
p93
S'font-weight:bold;vertical-align:top'
p94
ssg82
g85
sg75
(lp95
S'ajax'
p96
asbag68
(g89
g70
NtRp97
(dp98
g73
(dp99
S'_valign'
p100
S'top'
p101
ssg82
g85
sg75
(lp102
S':'
asbag68
(g89
g70
NtRp103
(dp104
g73
(dp105
sg82
g85
sg75
(lp106
g68
(g69
g70
NtRp107
(dp108
g73
(dp109
g81
I5
ssg82
g103
sg75
(lp110
S'False'
p111
asbasbasbag68
(g84
g70
NtRp112
(dp113
g73
(dp114
sg82
g78
sg75
(lp115
g68
(g89
g70
NtRp116
(dp117
g73
(dp118
g93
g94
ssg82
g112
sg75
(lp119
S'application'
p120
asbag68
(g89
g70
NtRp121
(dp122
g73
(dp123
g100
g101
ssg82
g112
sg75
(lp124
S':'
asbag68
(g89
g70
NtRp125
(dp126
g73
(dp127
sg82
g112
sg75
(lp128
g68
(g69
g70
NtRp129
(dp130
g73
(dp131
g81
I5
ssg82
g125
sg75
(lp132
S'Search_Engine'
p133
asbasbasbag68
(g84
g70
NtRp134
(dp135
g73
(dp136
sg82
g78
sg75
(lp137
g68
(g89
g70
NtRp138
(dp139
g73
(dp140
g93
g94
ssg82
g134
sg75
(lp141
g51
asbag68
(g89
g70
NtRp142
(dp143
g73
(dp144
g100
g101
ssg82
g134
sg75
(lp145
S':'
asbag68
(g89
g70
NtRp146
(dp147
g73
(dp148
sg82
g134
sg75
(lp149
g68
(g69
g70
NtRp150
(dp151
g73
(dp152
g81
I5
ssg82
g146
sg75
(lp153
g68
(g77
g70
NtRp154
(dp155
g73
(dp156
g81
I4
ssg82
Nsg75
(lp157
sbasbasbasbag68
(g84
g70
NtRp158
(dp159
g73
(dp160
sg82
g78
sg75
(lp161
g68
(g89
g70
NtRp162
(dp163
g73
(dp164
g93
g94
ssg82
g158
sg75
(lp165
S'body'
p166
asbag68
(g89
g70
NtRp167
(dp168
g73
(dp169
g100
g101
ssg82
g158
sg75
(lp170
S':'
asbag68
(g89
g70
NtRp171
(dp172
g73
(dp173
sg82
g158
sg75
(lp174
g68
(g69
g70
NtRp175
(dp176
g73
(dp177
g81
I5
ssg82
g171
sg75
(lp178
S'<cStringIO.StringO object at 0x7fbdb34b2340>'
p179
asbasbasbag68
(g84
g70
NtRp180
(dp181
g73
(dp182
sg82
g78
sg75
(lp183
g68
(g89
g70
NtRp184
(dp185
g73
(dp186
g93
g94
ssg82
g180
sg75
(lp187
S'client'
p188
asbag68
(g89
g70
NtRp189
(dp190
g73
(dp191
g100
g101
ssg82
g180
sg75
(lp192
S':'
asbag68
(g89
g70
NtRp193
(dp194
g73
(dp195
sg82
g180
sg75
(lp196
g68
(g69
g70
NtRp197
(dp198
g73
(dp199
g81
I5
ssg82
g193
sg75
(lp200
S'127.0.0.1'
p201
asbasbasbag68
(g84
g70
NtRp202
(dp203
g73
(dp204
sg82
g78
sg75
(lp205
g68
(g89
g70
NtRp206
(dp207
g73
(dp208
g93
g94
ssg82
g202
sg75
(lp209
S'controller'
p210
asbag68
(g89
g70
NtRp211
(dp212
g73
(dp213
g100
g101
ssg82
g202
sg75
(lp214
S':'
asbag68
(g89
g70
NtRp215
(dp216
g73
(dp217
sg82
g202
sg75
(lp218
g68
(g69
g70
NtRp219
(dp220
g73
(dp221
g81
I5
ssg82
g215
sg75
(lp222
S'search'
p223
asbasbasbag68
(g84
g70
NtRp224
(dp225
g73
(dp226
sg82
g78
sg75
(lp227
g68
(g89
g70
NtRp228
(dp229
g73
(dp230
g93
g94
ssg82
g224
sg75
(lp231
S'cookies'
p232
asbag68
(g89
g70
NtRp233
(dp234
g73
(dp235
g100
g101
ssg82
g224
sg75
(lp236
S':'
asbag68
(g89
g70
NtRp237
(dp238
g73
(dp239
sg82
g224
sg75
(lp240
g68
(g69
g70
NtRp241
(dp242
g73
(dp243
g81
I5
ssg82
g237
sg75
(lp244
g68
(g77
g70
NtRp245
(dp246
g73
(dp247
g81
I4
ssg82
Nsg75
(lp248
g68
(g84
g70
NtRp249
(dp250
g73
(dp251
sg82
g245
sg75
(lp252
g68
(g89
g70
NtRp253
(dp254
g73
(dp255
g93
g94
ssg82
g249
sg75
(lp256
S'session_id_admin'
p257
asbag68
(g89
g70
NtRp258
(dp259
g73
(dp260
g100
g101
ssg82
g249
sg75
(lp261
S':'
asbag68
(g89
g70
NtRp262
(dp263
g73
(dp264
sg82
g249
sg75
(lp265
g68
(g69
g70
NtRp266
(dp267
g73
(dp268
g81
I4
ssg82
g262
sg75
(lp269
g68
(g77
g70
NtRp270
(dp271
g73
(dp272
g81
I3
ssg82
Nsg75
(lp273
g68
(g84
g70
NtRp274
(dp275
g73
(dp276
sg82
g270
sg75
(lp277
g68
(g89
g70
NtRp278
(dp279
g73
(dp280
g93
g94
ssg82
g274
sg75
(lp281
S'comment'
p282
asbag68
(g89
g70
NtRp283
(dp284
g73
(dp285
g100
g101
ssg82
g274
sg75
(lp286
S':'
asbag68
(g89
g70
NtRp287
(dp288
g73
(dp289
sg82
g274
sg75
(lp290
g68
(g69
g70
NtRp291
(dp292
g73
(dp293
g81
I3
ssg82
g287
sg75
(lp294
S''
asbasbasbag68
(g84
g70
NtRp295
(dp296
g73
(dp297
sg82
g270
sg75
(lp298
g68
(g89
g70
NtRp299
(dp300
g73
(dp301
g93
g94
ssg82
g295
sg75
(lp302
S'domain'
p303
asbag68
(g89
g70
NtRp304
(dp305
g73
(dp306
g100
g101
ssg82
g295
sg75
(lp307
S':'
asbag68
(g89
g70
NtRp308
(dp309
g73
(dp310
sg82
g295
sg75
(lp311
g68
(g69
g70
NtRp312
(dp313
g73
(dp314
g81
I3
ssg82
g308
sg75
(lp315
S''
asbasbasbag68
(g84
g70
NtRp316
(dp317
g73
(dp318
sg82
g270
sg75
(lp319
g68
(g89
g70
NtRp320
(dp321
g73
(dp322
g93
g94
ssg82
g316
sg75
(lp323
S'expires'
p324
asbag68
(g89
g70
NtRp325
(dp326
g73
(dp327
g100
g101
ssg82
g316
sg75
(lp328
S':'
asbag68
(g89
g70
NtRp329
(dp330
g73
(dp331
sg82
g316
sg75
(lp332
g68
(g69
g70
NtRp333
(dp334
g73
(dp335
g81
I3
ssg82
g329
sg75
(lp336
S''
asbasbasbag68
(g84
g70
NtRp337
(dp338
g73
(dp339
sg82
g270
sg75
(lp340
g68
(g89
g70
NtRp341
(dp342
g73
(dp343
g93
g94
ssg82
g337
sg75
(lp344
S'httponly'
p345
asbag68
(g89
g70
NtRp346
(dp347
g73
(dp348
g100
g101
ssg82
g337
sg75
(lp349
S':'
asbag68
(g89
g70
NtRp350
(dp351
g73
(dp352
sg82
g337
sg75
(lp353
g68
(g69
g70
NtRp354
(dp355
g73
(dp356
g81
I3
ssg82
g350
sg75
(lp357
S''
asbasbasbag68
(g84
g70
NtRp358
(dp359
g73
(dp360
sg82
g270
sg75
(lp361
g68
(g89
g70
NtRp362
(dp363
g73
(dp364
g93
g94
ssg82
g358
sg75
(lp365
S'max-age'
p366
asbag68
(g89
g70
NtRp367
(dp368
g73
(dp369
g100
g101
ssg82
g358
sg75
(lp370
S':'
asbag68
(g89
g70
NtRp371
(dp372
g73
(dp373
sg82
g358
sg75
(lp374
g68
(g69
g70
NtRp375
(dp376
g73
(dp377
g81
I3
ssg82
g371
sg75
(lp378
S''
asbasbasbag68
(g84
g70
NtRp379
(dp380
g73
(dp381
sg82
g270
sg75
(lp382
g68
(g89
g70
NtRp383
(dp384
g73
(dp385
g93
g94
ssg82
g379
sg75
(lp386
S'path'
p387
asbag68
(g89
g70
NtRp388
(dp389
g73
(dp390
g100
g101
ssg82
g379
sg75
(lp391
S':'
asbag68
(g89
g70
NtRp392
(dp393
g73
(dp394
sg82
g379
sg75
(lp395
g68
(g69
g70
NtRp396
(dp397
g73
(dp398
g81
I3
ssg82
g392
sg75
(lp399
S''
asbasbasbag68
(g84
g70
NtRp400
(dp401
g73
(dp402
sg82
g270
sg75
(lp403
g68
(g89
g70
NtRp404
(dp405
g73
(dp406
g93
g94
ssg82
g400
sg75
(lp407
S'secure'
p408
asbag68
(g89
g70
NtRp409
(dp410
g73
(dp411
g100
g101
ssg82
g400
sg75
(lp412
S':'
asbag68
(g89
g70
NtRp413
(dp414
g73
(dp415
sg82
g400
sg75
(lp416
g68
(g69
g70
NtRp417
(dp418
g73
(dp419
g81
I3
ssg82
g413
sg75
(lp420
S''
asbasbasbag68
(g84
g70
NtRp421
(dp422
g73
(dp423
sg82
g270
sg75
(lp424
g68
(g89
g70
NtRp425
(dp426
g73
(dp427
g93
g94
ssg82
g421
sg75
(lp428
S'version'
p429
asbag68
(g89
g70
NtRp430
(dp431
g73
(dp432
g100
g101
ssg82
g421
sg75
(lp433
S':'
asbag68
(g89
g70
NtRp434
(dp435
g73
(dp436
sg82
g421
sg75
(lp437
g68
(g69
g70
NtRp438
(dp439
g73
(dp440
g81
I3
ssg82
g434
sg75
(lp441
S''
asbasbasbasbasbasbasbag68
(g84
g70
NtRp442
(dp443
g73
(dp444
sg82
g245
sg75
(lp445
g68
(g89
g70
NtRp446
(dp447
g73
(dp448
g93
g94
ssg82
g442
sg75
(lp449
S'session_id_search_engine'
p450
asbag68
(g89
g70
NtRp451
(dp452
g73
(dp453
g100
g101
ssg82
g442
sg75
(lp454
S':'
asbag68
(g89
g70
NtRp455
(dp456
g73
(dp457
sg82
g442
sg75
(lp458
g68
(g69
g70
NtRp459
(dp460
g73
(dp461
g81
I4
ssg82
g455
sg75
(lp462
g68
(g77
g70
NtRp463
(dp464
g73
(dp465
g81
I3
ssg82
Nsg75
(lp466
g68
(g84
g70
NtRp467
(dp468
g73
(dp469
sg82
g463
sg75
(lp470
g68
(g89
g70
NtRp471
(dp472
g73
(dp473
g93
g94
ssg82
g467
sg75
(lp474
g282
asbag68
(g89
g70
NtRp475
(dp476
g73
(dp477
g100
g101
ssg82
g467
sg75
(lp478
S':'
asbag68
(g89
g70
NtRp479
(dp480
g73
(dp481
sg82
g467
sg75
(lp482
g68
(g69
g70
NtRp483
(dp484
g73
(dp485
g81
I3
ssg82
g479
sg75
(lp486
S''
asbasbasbag68
(g84
g70
NtRp487
(dp488
g73
(dp489
sg82
g463
sg75
(lp490
g68
(g89
g70
NtRp491
(dp492
g73
(dp493
g93
g94
ssg82
g487
sg75
(lp494
g303
asbag68
(g89
g70
NtRp495
(dp496
g73
(dp497
g100
g101
ssg82
g487
sg75
(lp498
S':'
asbag68
(g89
g70
NtRp499
(dp500
g73
(dp501
sg82
g487
sg75
(lp502
g68
(g69
g70
NtRp503
(dp504
g73
(dp505
g81
I3
ssg82
g499
sg75
(lp506
S''
asbasbasbag68
(g84
g70
NtRp507
(dp508
g73
(dp509
sg82
g463
sg75
(lp510
g68
(g89
g70
NtRp511
(dp512
g73
(dp513
g93
g94
ssg82
g507
sg75
(lp514
g324
asbag68
(g89
g70
NtRp515
(dp516
g73
(dp517
g100
g101
ssg82
g507
sg75
(lp518
S':'
asbag68
(g89
g70
NtRp519
(dp520
g73
(dp521
sg82
g507
sg75
(lp522
g68
(g69
g70
NtRp523
(dp524
g73
(dp525
g81
I3
ssg82
g519
sg75
(lp526
S''
asbasbasbag68
(g84
g70
NtRp527
(dp528
g73
(dp529
sg82
g463
sg75
(lp530
g68
(g89
g70
NtRp531
(dp532
g73
(dp533
g93
g94
ssg82
g527
sg75
(lp534
g345
asbag68
(g89
g70
NtRp535
(dp536
g73
(dp537
g100
g101
ssg82
g527
sg75
(lp538
S':'
asbag68
(g89
g70
NtRp539
(dp540
g73
(dp541
sg82
g527
sg75
(lp542
g68
(g69
g70
NtRp543
(dp544
g73
(dp545
g81
I3
ssg82
g539
sg75
(lp546
S''
asbasbasbag68
(g84
g70
NtRp547
(dp548
g73
(dp549
sg82
g463
sg75
(lp550
g68
(g89
g70
NtRp551
(dp552
g73
(dp553
g93
g94
ssg82
g547
sg75
(lp554
g366
asbag68
(g89
g70
NtRp555
(dp556
g73
(dp557
g100
g101
ssg82
g547
sg75
(lp558
S':'
asbag68
(g89
g70
NtRp559
(dp560
g73
(dp561
sg82
g547
sg75
(lp562
g68
(g69
g70
NtRp563
(dp564
g73
(dp565
g81
I3
ssg82
g559
sg75
(lp566
S''
asbasbasbag68
(g84
g70
NtRp567
(dp568
g73
(dp569
sg82
g463
sg75
(lp570
g68
(g89
g70
NtRp571
(dp572
g73
(dp573
g93
g94
ssg82
g567
sg75
(lp574
g387
asbag68
(g89
g70
NtRp575
(dp576
g73
(dp577
g100
g101
ssg82
g567
sg75
(lp578
S':'
asbag68
(g89
g70
NtRp579
(dp580
g73
(dp581
sg82
g567
sg75
(lp582
g68
(g69
g70
NtRp583
(dp584
g73
(dp585
g81
I3
ssg82
g579
sg75
(lp586
S''
asbasbasbag68
(g84
g70
NtRp587
(dp588
g73
(dp589
sg82
g463
sg75
(lp590
g68
(g89
g70
NtRp591
(dp592
g73
(dp593
g93
g94
ssg82
g587
sg75
(lp594
g408
asbag68
(g89
g70
NtRp595
(dp596
g73
(dp597
g100
g101
ssg82
g587
sg75
(lp598
S':'
asbag68
(g89
g70
NtRp599
(dp600
g73
(dp601
sg82
g587
sg75
(lp602
g68
(g69
g70
NtRp603
(dp604
g73
(dp605
g81
I3
ssg82
g599
sg75
(lp606
S''
asbasbasbag68
(g84
g70
NtRp607
(dp608
g73
(dp609
sg82
g463
sg75
(lp610
g68
(g89
g70
NtRp611
(dp612
g73
(dp613
g93
g94
ssg82
g607
sg75
(lp614
g429
asbag68
(g89
g70
NtRp615
(dp616
g73
(dp617
g100
g101
ssg82
g607
sg75
(lp618
S':'
asbag68
(g89
g70
NtRp619
(dp620
g73
(dp621
sg82
g607
sg75
(lp622
g68
(g69
g70
NtRp623
(dp624
g73
(dp625
g81
I3
ssg82
g619
sg75
(lp626
S''
asbasbasbasbasbasbasbag68
(g84
g70
NtRp627
(dp628
g73
(dp629
sg82
g245
sg75
(lp630
g68
(g89
g70
NtRp631
(dp632
g73
(dp633
g93
g94
ssg82
g627
sg75
(lp634
S'session_id_welcome'
p635
asbag68
(g89
g70
NtRp636
(dp637
g73
(dp638
g100
g101
ssg82
g627
sg75
(lp639
S':'
asbag68
(g89
g70
NtRp640
(dp641
g73
(dp642
sg82
g627
sg75
(lp643
g68
(g69
g70
NtRp644
(dp645
g73
(dp646
g81
I4
ssg82
g640
sg75
(lp647
g68
(g77
g70
NtRp648
(dp649
g73
(dp650
g81
I3
ssg82
Nsg75
(lp651
g68
(g84
g70
NtRp652
(dp653
g73
(dp654
sg82
g648
sg75
(lp655
g68
(g89
g70
NtRp656
(dp657
g73
(dp658
g93
g94
ssg82
g652
sg75
(lp659
g282
asbag68
(g89
g70
NtRp660
(dp661
g73
(dp662
g100
g101
ssg82
g652
sg75
(lp663
S':'
asbag68
(g89
g70
NtRp664
(dp665
g73
(dp666
sg82
g652
sg75
(lp667
g68
(g69
g70
NtRp668
(dp669
g73
(dp670
g81
I3
ssg82
g664
sg75
(lp671
S''
asbasbasbag68
(g84
g70
NtRp672
(dp673
g73
(dp674
sg82
g648
sg75
(lp675
g68
(g89
g70
NtRp676
(dp677
g73
(dp678
g93
g94
ssg82
g672
sg75
(lp679
g303
asbag68
(g89
g70
NtRp680
(dp681
g73
(dp682
g100
g101
ssg82
g672
sg75
(lp683
S':'
asbag68
(g89
g70
NtRp684
(dp685
g73
(dp686
sg82
g672
sg75
(lp687
g68
(g69
g70
NtRp688
(dp689
g73
(dp690
g81
I3
ssg82
g684
sg75
(lp691
S''
asbasbasbag68
(g84
g70
NtRp692
(dp693
g73
(dp694
sg82
g648
sg75
(lp695
g68
(g89
g70
NtRp696
(dp697
g73
(dp698
g93
g94
ssg82
g692
sg75
(lp699
g324
asbag68
(g89
g70
NtRp700
(dp701
g73
(dp702
g100
g101
ssg82
g692
sg75
(lp703
S':'
asbag68
(g89
g70
NtRp704
(dp705
g73
(dp706
sg82
g692
sg75
(lp707
g68
(g69
g70
NtRp708
(dp709
g73
(dp710
g81
I3
ssg82
g704
sg75
(lp711
S''
asbasbasbag68
(g84
g70
NtRp712
(dp713
g73
(dp714
sg82
g648
sg75
(lp715
g68
(g89
g70
NtRp716
(dp717
g73
(dp718
g93
g94
ssg82
g712
sg75
(lp719
g345
asbag68
(g89
g70
NtRp720
(dp721
g73
(dp722
g100
g101
ssg82
g712
sg75
(lp723
S':'
asbag68
(g89
g70
NtRp724
(dp725
g73
(dp726
sg82
g712
sg75
(lp727
g68
(g69
g70
NtRp728
(dp729
g73
(dp730
g81
I3
ssg82
g724
sg75
(lp731
S''
asbasbasbag68
(g84
g70
NtRp732
(dp733
g73
(dp734
sg82
g648
sg75
(lp735
g68
(g89
g70
NtRp736
(dp737
g73
(dp738
g93
g94
ssg82
g732
sg75
(lp739
g366
asbag68
(g89
g70
NtRp740
(dp741
g73
(dp742
g100
g101
ssg82
g732
sg75
(lp743
S':'
asbag68
(g89
g70
NtRp744
(dp745
g73
(dp746
sg82
g732
sg75
(lp747
g68
(g69
g70
NtRp748
(dp749
g73
(dp750
g81
I3
ssg82
g744
sg75
(lp751
S''
asbasbasbag68
(g84
g70
NtRp752
(dp753
g73
(dp754
sg82
g648
sg75
(lp755
g68
(g89
g70
NtRp756
(dp757
g73
(dp758
g93
g94
ssg82
g752
sg75
(lp759
g387
asbag68
(g89
g70
NtRp760
(dp761
g73
(dp762
g100
g101
ssg82
g752
sg75
(lp763
S':'
asbag68
(g89
g70
NtRp764
(dp765
g73
(dp766
sg82
g752
sg75
(lp767
g68
(g69
g70
NtRp768
(dp769
g73
(dp770
g81
I3
ssg82
g764
sg75
(lp771
S''
asbasbasbag68
(g84
g70
NtRp772
(dp773
g73
(dp774
sg82
g648
sg75
(lp775
g68
(g89
g70
NtRp776
(dp777
g73
(dp778
g93
g94
ssg82
g772
sg75
(lp779
g408
asbag68
(g89
g70
NtRp780
(dp781
g73
(dp782
g100
g101
ssg82
g772
sg75
(lp783
S':'
asbag68
(g89
g70
NtRp784
(dp785
g73
(dp786
sg82
g772
sg75
(lp787
g68
(g69
g70
NtRp788
(dp789
g73
(dp790
g81
I3
ssg82
g784
sg75
(lp791
S''
asbasbasbag68
(g84
g70
NtRp792
(dp793
g73
(dp794
sg82
g648
sg75
(lp795
g68
(g89
g70
NtRp796
(dp797
g73
(dp798
g93
g94
ssg82
g792
sg75
(lp799
g429
asbag68
(g89
g70
NtRp800
(dp801
g73
(dp802
g100
g101
ssg82
g792
sg75
(lp803
S':'
asbag68
(g89
g70
NtRp804
(dp805
g73
(dp806
sg82
g792
sg75
(lp807
g68
(g69
g70
NtRp808
(dp809
g73
(dp810
g81
I3
ssg82
g804
sg75
(lp811
S''
asbasbasbasbasbasbasbasbasbasbasbag68
(g84
g70
NtRp812
(dp813
g73
(dp814
sg82
g78
sg75
(lp815
g68
(g89
g70
NtRp816
(dp817
g73
(dp818
g93
g94
ssg82
g812
sg75
(lp819
S'env'
p820
asbag68
(g89
g70
NtRp821
(dp822
g73
(dp823
g100
g101
ssg82
g812
sg75
(lp824
S':'
asbag68
(g89
g70
NtRp825
(dp826
g73
(dp827
sg82
g812
sg75
(lp828
g68
(g69
g70
NtRp829
(dp830
g73
(dp831
g81
I5
ssg82
g825
sg75
(lp832
g68
(g77
g70
NtRp833
(dp834
g73
(dp835
g81
I4
ssg82
Nsg75
(lp836
g68
(g84
g70
NtRp837
(dp838
g73
(dp839
sg82
g833
sg75
(lp840
g68
(g89
g70
NtRp841
(dp842
g73
(dp843
g93
g94
ssg82
g837
sg75
(lp844
S'app_folders'
p845
asbag68
(g89
g70
NtRp846
(dp847
g73
(dp848
g100
g101
ssg82
g837
sg75
(lp849
S':'
asbag68
(g89
g70
NtRp850
(dp851
g73
(dp852
sg82
g837
sg75
(lp853
g68
(g69
g70
NtRp854
(dp855
g73
(dp856
g81
I4
ssg82
g850
sg75
(lp857
S"set(['/home/shubham/web2py/applications/Search_Engine/', '/home/shubham/web2py/applications/admin/', '/home/shubham/web2py/applications/welcome/'])"
p858
asbasbasbag68
(g84
g70
NtRp859
(dp860
g73
(dp861
sg82
g833
sg75
(lp862
g68
(g89
g70
NtRp863
(dp864
g73
(dp865
g93
g94
ssg82
g859
sg75
(lp866
S'applications_parent'
p867
asbag68
(g89
g70
NtRp868
(dp869
g73
(dp870
g100
g101
ssg82
g859
sg75
(lp871
S':'
asbag68
(g89
g70
NtRp872
(dp873
g73
(dp874
sg82
g859
sg75
(lp875
g68
(g69
g70
NtRp876
(dp877
g73
(dp878
g81
I4
ssg82
g872
sg75
(lp879
S'/home/shubham/web2py'
p880
asbasbasbag68
(g84
g70
NtRp881
(dp882
g73
(dp883
sg82
g833
sg75
(lp884
g68
(g89
g70
NtRp885
(dp886
g73
(dp887
g93
g94
ssg82
g881
sg75
(lp888
S'cmd_args'
p889
asbag68
(g89
g70
NtRp890
(dp891
g73
(dp892
g100
g101
ssg82
g881
sg75
(lp893
S':'
asbag68
(g89
g70
NtRp894
(dp895
g73
(dp896
sg82
g881
sg75
(lp897
g68
(g69
g70
NtRp898
(dp899
g73
(dp900
g81
I4
ssg82
g894
sg75
(lp901
g68
(g77
g70
NtRp902
(dp903
g73
(dp904
g81
I3
ssg82
Nsg75
(lp905
sbasbasbasbag68
(g84
g70
NtRp906
(dp907
g73
(dp908
sg82
g833
sg75
(lp909
g68
(g89
g70
NtRp910
(dp911
g73
(dp912
g93
g94
ssg82
g906
sg75
(lp913
S'cmd_options'
p914
asbag68
(g89
g70
NtRp915
(dp916
g73
(dp917
g100
g101
ssg82
g906
sg75
(lp918
S':'
asbag68
(g89
g70
NtRp919
(dp920
g73
(dp921
sg82
g906
sg75
(lp922
g68
(g69
g70
NtRp923
(dp924
g73
(dp925
g81
I4
ssg82
g919
sg75
(lp926
S"<Values at 0x7fbe0ab47758: {'verbose': False, 'ip': '127.0.0.1', 'shutdown_timeout': 5, 'taskbar': False, 'nocron': False, 'pid_filename': 'httpserver.pid', 'maxthreads': None, 'softcron': False, 'server_name': 'shubham-HCL-Desktop', 'bpython': False, 'nogui': False, 'port': 8000, 'extcron': False, 'debuglevel': 30, 'test': None, 'folder': '/home/shubham/web2py', 'config': '', 'import_models': False, 'winservice': '', 'shell': None, 'run': '', 'log_filename': 'httpserver.log', 'args': [''], 'socket_timeout': 5, 'ssl_ca_certificate': None, 'scheduler': None, 'profiler_filename': None, 'ssl_private_key': '', 'password': '<ask>', 'request_queue_size': 5, 'ssl_certificate': '', 'cronjob': False, 'numthreads': None, 'quiet': False, 'interfaces': None, 'minthreads': None, 'timeout': 10, 'plain': False, 'nobanner': False}>"
p927
asbasbasbag68
(g84
g70
NtRp928
(dp929
g73
(dp930
sg82
g833
sg75
(lp931
g68
(g89
g70
NtRp932
(dp933
g73
(dp934
g93
g94
ssg82
g928
sg75
(lp935
S'db_sessions'
p936
asbag68
(g89
g70
NtRp937
(dp938
g73
(dp939
g100
g101
ssg82
g928
sg75
(lp940
S':'
asbag68
(g89
g70
NtRp941
(dp942
g73
(dp943
sg82
g928
sg75
(lp944
g68
(g69
g70
NtRp945
(dp946
g73
(dp947
g81
I4
ssg82
g941
sg75
(lp948
S'set([])'
p949
asbasbasbag68
(g84
g70
NtRp950
(dp951
g73
(dp952
sg82
g833
sg75
(lp953
g68
(g89
g70
NtRp954
(dp955
g73
(dp956
g93
g94
ssg82
g950
sg75
(lp957
S'debugging'
p958
asbag68
(g89
g70
NtRp959
(dp960
g73
(dp961
g100
g101
ssg82
g950
sg75
(lp962
S':'
asbag68
(g89
g70
NtRp963
(dp964
g73
(dp965
sg82
g950
sg75
(lp966
g68
(g69
g70
NtRp967
(dp968
g73
(dp969
g81
I4
ssg82
g963
sg75
(lp970
g111
asbasbasbag68
(g84
g70
NtRp971
(dp972
g73
(dp973
sg82
g833
sg75
(lp974
g68
(g89
g70
NtRp975
(dp976
g73
(dp977
g93
g94
ssg82
g971
sg75
(lp978
S'gluon_parent'
p979
asbag68
(g89
g70
NtRp980
(dp981
g73
(dp982
g100
g101
ssg82
g971
sg75
(lp983
S':'
asbag68
(g89
g70
NtRp984
(dp985
g73
(dp986
sg82
g971
sg75
(lp987
g68
(g69
g70
NtRp988
(dp989
g73
(dp990
g81
I4
ssg82
g984
sg75
(lp991
S'/usr/share/web2py'
p992
asbasbasbag68
(g84
g70
NtRp993
(dp994
g73
(dp995
sg82
g833
sg75
(lp996
g68
(g89
g70
NtRp997
(dp998
g73
(dp999
g93
g94
ssg82
g993
sg75
(lp1000
S'http_accept'
p1001
asbag68
(g89
g70
NtRp1002
(dp1003
g73
(dp1004
g100
g101
ssg82
g993
sg75
(lp1005
S':'
asbag68
(g89
g70
NtRp1006
(dp1007
g73
(dp1008
sg82
g993
sg75
(lp1009
g68
(g69
g70
NtRp1010
(dp1011
g73
(dp1012
g81
I4
ssg82
g1006
sg75
(lp1013
S'text/html,application/xhtml+xml,application/xml;q=0.9,image/webp,*/*;q=0.8'
p1014
asbasbasbag68
(g84
g70
NtRp1015
(dp1016
g73
(dp1017
sg82
g833
sg75
(lp1018
g68
(g89
g70
NtRp1019
(dp1020
g73
(dp1021
g93
g94
ssg82
g1015
sg75
(lp1022
S'http_accept_encoding'
p1023
asbag68
(g89
g70
NtRp1024
(dp1025
g73
(dp1026
g100
g101
ssg82
g1015
sg75
(lp1027
S':'
asbag68
(g89
g70
NtRp1028
(dp1029
g73
(dp1030
sg82
g1015
sg75
(lp1031
g68
(g69
g70
NtRp1032
(dp1033
g73
(dp1034
g81
I4
ssg82
g1028
sg75
(lp1035
S'gzip, deflate, sdch'
p1036
asbasbasbag68
(g84
g70
NtRp1037
(dp1038
g73
(dp1039
sg82
g833
sg75
(lp1040
g68
(g89
g70
NtRp1041
(dp1042
g73
(dp1043
g93
g94
ssg82
g1037
sg75
(lp1044
S'http_accept_language'
p1045
asbag68
(g89
g70
NtRp1046
(dp1047
g73
(dp1048
g100
g101
ssg82
g1037
sg75
(lp1049
S':'
asbag68
(g89
g70
NtRp1050
(dp1051
g73
(dp1052
sg82
g1037
sg75
(lp1053
g68
(g69
g70
NtRp1054
(dp1055
g73
(dp1056
g81
I4
ssg82
g1050
sg75
(lp1057
S'en-US,en;q=0.8'
p1058
asbasbasbag68
(g84
g70
NtRp1059
(dp1060
g73
(dp1061
sg82
g833
sg75
(lp1062
g68
(g89
g70
NtRp1063
(dp1064
g73
(dp1065
g93
g94
ssg82
g1059
sg75
(lp1066
S'http_connection'
p1067
asbag68
(g89
g70
NtRp1068
(dp1069
g73
(dp1070
g100
g101
ssg82
g1059
sg75
(lp1071
S':'
asbag68
(g89
g70
NtRp1072
(dp1073
g73
(dp1074
sg82
g1059
sg75
(lp1075
g68
(g69
g70
NtRp1076
(dp1077
g73
(dp1078
g81
I4
ssg82
g1072
sg75
(lp1079
S'keep-alive'
p1080
asbasbasbag68
(g84
g70
NtRp1081
(dp1082
g73
(dp1083
sg82
g833
sg75
(lp1084
g68
(g89
g70
NtRp1085
(dp1086
g73
(dp1087
g93
g94
ssg82
g1081
sg75
(lp1088
S'http_cookie'
p1089
asbag68
(g89
g70
NtRp1090
(dp1091
g73
(dp1092
g100
g101
ssg82
g1081
sg75
(lp1093
S':'
asbag68
(g89
g70
NtRp1094
(dp1095
g73
(dp1096
sg82
g1081
sg75
(lp1097
g68
(g69
g70
NtRp1098
(dp1099
g73
(dp1100
g81
I4
ssg82
g1094
sg75
(lp1101
S'session_id_welcome=127.0.0.1-5c54e416-1ae8-44d4-996d-e19b6ec186af; session_id_admin=127.0.0.1-65509806-aecc-42bc-a630-65074a660df8; session_id_search_engine=127.0.0.1-a8b3258c-8c92-470f-be04-94c1da5429bc'
p1102
asbasbasbag68
(g84
g70
NtRp1103
(dp1104
g73
(dp1105
sg82
g833
sg75
(lp1106
g68
(g89
g70
NtRp1107
(dp1108
g73
(dp1109
g93
g94
ssg82
g1103
sg75
(lp1110
S'http_host'
p1111
asbag68
(g89
g70
NtRp1112
(dp1113
g73
(dp1114
g100
g101
ssg82
g1103
sg75
(lp1115
S':'
asbag68
(g89
g70
NtRp1116
(dp1117
g73
(dp1118
sg82
g1103
sg75
(lp1119
g68
(g69
g70
NtRp1120
(dp1121
g73
(dp1122
g81
I4
ssg82
g1116
sg75
(lp1123
S'127.0.0.1:8000'
p1124
asbasbasbag68
(g84
g70
NtRp1125
(dp1126
g73
(dp1127
sg82
g833
sg75
(lp1128
g68
(g89
g70
NtRp1129
(dp1130
g73
(dp1131
g93
g94
ssg82
g1125
sg75
(lp1132
S'http_upgrade_insecure_requests'
p1133
asbag68
(g89
g70
NtRp1134
(dp1135
g73
(dp1136
g100
g101
ssg82
g1125
sg75
(lp1137
S':'
asbag68
(g89
g70
NtRp1138
(dp1139
g73
(dp1140
sg82
g1125
sg75
(lp1141
g68
(g69
g70
NtRp1142
(dp1143
g73
(dp1144
g81
I4
ssg82
g1138
sg75
(lp1145
S'1'
asbasbasbag68
(g84
g70
NtRp1146
(dp1147
g73
(dp1148
sg82
g833
sg75
(lp1149
g68
(g89
g70
NtRp1150
(dp1151
g73
(dp1152
g93
g94
ssg82
g1146
sg75
(lp1153
S'http_user_agent'
p1154
asbag68
(g89
g70
NtRp1155
(dp1156
g73
(dp1157
g100
g101
ssg82
g1146
sg75
(lp1158
S':'
asbag68
(g89
g70
NtRp1159
(dp1160
g73
(dp1161
sg82
g1146
sg75
(lp1162
g68
(g69
g70
NtRp1163
(dp1164
g73
(dp1165
g81
I4
ssg82
g1159
sg75
(lp1166
S'Mozilla/5.0 (X11; Linux x86_64) AppleWebKit/537.36 (KHTML, like Gecko) Chrome/44.0.2403.157 Safari/537.36'
p1167
asbasbasbag68
(g84
g70
NtRp1168
(dp1169
g73
(dp1170
sg82
g833
sg75
(lp1171
g68
(g89
g70
NtRp1172
(dp1173
g73
(dp1174
g93
g94
ssg82
g1168
sg75
(lp1175
S'is_jython'
p1176
asbag68
(g89
g70
NtRp1177
(dp1178
g73
(dp1179
g100
g101
ssg82
g1168
sg75
(lp1180
S':'
asbag68
(g89
g70
NtRp1181
(dp1182
g73
(dp1183
sg82
g1168
sg75
(lp1184
g68
(g69
g70
NtRp1185
(dp1186
g73
(dp1187
g81
I4
ssg82
g1181
sg75
(lp1188
g111
asbasbasbag68
(g84
g70
NtRp1189
(dp1190
g73
(dp1191
sg82
g833
sg75
(lp1192
g68
(g89
g70
NtRp1193
(dp1194
g73
(dp1195
g93
g94
ssg82
g1189
sg75
(lp1196
S'is_pypy'
p1197
asbag68
(g89
g70
NtRp1198
(dp1199
g73
(dp1200
g100
g101
ssg82
g1189
sg75
(lp1201
S':'
asbag68
(g89
g70
NtRp1202
(dp1203
g73
(dp1204
sg82
g1189
sg75
(lp1205
g68
(g69
g70
NtRp1206
(dp1207
g73
(dp1208
g81
I4
ssg82
g1202
sg75
(lp1209
g111
asbasbasbag68
(g84
g70
NtRp1210
(dp1211
g73
(dp1212
sg82
g833
sg75
(lp1213
g68
(g89
g70
NtRp1214
(dp1215
g73
(dp1216
g93
g94
ssg82
g1210
sg75
(lp1217
S'path_info'
p1218
asbag68
(g89
g70
NtRp1219
(dp1220
g73
(dp1221
g100
g101
ssg82
g1210
sg75
(lp1222
S':'
asbag68
(g89
g70
NtRp1223
(dp1224
g73
(dp1225
sg82
g1210
sg75
(lp1226
g68
(g69
g70
NtRp1227
(dp1228
g73
(dp1229
g81
I4
ssg82
g1223
sg75
(lp1230
S'/Search_Engine/search'
p1231
asbasbasbag68
(g84
g70
NtRp1232
(dp1233
g73
(dp1234
sg82
g833
sg75
(lp1235
g68
(g89
g70
NtRp1236
(dp1237
g73
(dp1238
g93
g94
ssg82
g1232
sg75
(lp1239
S'query_string'
p1240
asbag68
(g89
g70
NtRp1241
(dp1242
g73
(dp1243
g100
g101
ssg82
g1232
sg75
(lp1244
S':'
asbag68
(g89
g70
NtRp1245
(dp1246
g73
(dp1247
sg82
g1232
sg75
(lp1248
g68
(g69
g70
NtRp1249
(dp1250
g73
(dp1251
g81
I4
ssg82
g1245
sg75
(lp1252
S''
asbasbasbag68
(g84
g70
NtRp1253
(dp1254
g73
(dp1255
sg82
g833
sg75
(lp1256
g68
(g89
g70
NtRp1257
(dp1258
g73
(dp1259
g93
g94
ssg82
g1253
sg75
(lp1260
S'remote_addr'
p1261
asbag68
(g89
g70
NtRp1262
(dp1263
g73
(dp1264
g100
g101
ssg82
g1253
sg75
(lp1265
S':'
asbag68
(g89
g70
NtRp1266
(dp1267
g73
(dp1268
sg82
g1253
sg75
(lp1269
g68
(g69
g70
NtRp1270
(dp1271
g73
(dp1272
g81
I4
ssg82
g1266
sg75
(lp1273
g201
asbasbasbag68
(g84
g70
NtRp1274
(dp1275
g73
(dp1276
sg82
g833
sg75
(lp1277
g68
(g89
g70
NtRp1278
(dp1279
g73
(dp1280
g93
g94
ssg82
g1274
sg75
(lp1281
S'remote_port'
p1282
asbag68
(g89
g70
NtRp1283
(dp1284
g73
(dp1285
g100
g101
ssg82
g1274
sg75
(lp1286
S':'
asbag68
(g89
g70
NtRp1287
(dp1288
g73
(dp1289
sg82
g1274
sg75
(lp1290
g68
(g69
g70
NtRp1291
(dp1292
g73
(dp1293
g81
I4
ssg82
g1287
sg75
(lp1294
S'43618'
p1295
asbasbasbag68
(g84
g70
NtRp1296
(dp1297
g73
(dp1298
sg82
g833
sg75
(lp1299
g68
(g89
g70
NtRp1300
(dp1301
g73
(dp1302
g93
g94
ssg82
g1296
sg75
(lp1303
S'request_method'
p1304
asbag68
(g89
g70
NtRp1305
(dp1306
g73
(dp1307
g100
g101
ssg82
g1296
sg75
(lp1308
S':'
asbag68
(g89
g70
NtRp1309
(dp1310
g73
(dp1311
sg82
g1296
sg75
(lp1312
g68
(g69
g70
NtRp1313
(dp1314
g73
(dp1315
g81
I4
ssg82
g1309
sg75
(lp1316
S'GET'
p1317
asbasbasbag68
(g84
g70
NtRp1318
(dp1319
g73
(dp1320
sg82
g833
sg75
(lp1321
g68
(g89
g70
NtRp1322
(dp1323
g73
(dp1324
g93
g94
ssg82
g1318
sg75
(lp1325
S'script_name'
p1326
asbag68
(g89
g70
NtRp1327
(dp1328
g73
(dp1329
g100
g101
ssg82
g1318
sg75
(lp1330
S':'
asbag68
(g89
g70
NtRp1331
(dp1332
g73
(dp1333
sg82
g1318
sg75
(lp1334
g68
(g69
g70
NtRp1335
(dp1336
g73
(dp1337
g81
I4
ssg82
g1331
sg75
(lp1338
S''
asbasbasbag68
(g84
g70
NtRp1339
(dp1340
g73
(dp1341
sg82
g833
sg75
(lp1342
g68
(g89
g70
NtRp1343
(dp1344
g73
(dp1345
g93
g94
ssg82
g1339
sg75
(lp1346
S'server_name'
p1347
asbag68
(g89
g70
NtRp1348
(dp1349
g73
(dp1350
g100
g101
ssg82
g1339
sg75
(lp1351
S':'
asbag68
(g89
g70
NtRp1352
(dp1353
g73
(dp1354
sg82
g1339
sg75
(lp1355
g68
(g69
g70
NtRp1356
(dp1357
g73
(dp1358
g81
I4
ssg82
g1352
sg75
(lp1359
S'shubham-HCL-Desktop'
p1360
asbasbasbag68
(g84
g70
NtRp1361
(dp1362
g73
(dp1363
sg82
g833
sg75
(lp1364
g68
(g89
g70
NtRp1365
(dp1366
g73
(dp1367
g93
g94
ssg82
g1361
sg75
(lp1368
S'server_port'
p1369
asbag68
(g89
g70
NtRp1370
(dp1371
g73
(dp1372
g100
g101
ssg82
g1361
sg75
(lp1373
S':'
asbag68
(g89
g70
NtRp1374
(dp1375
g73
(dp1376
sg82
g1361
sg75
(lp1377
g68
(g69
g70
NtRp1378
(dp1379
g73
(dp1380
g81
I4
ssg82
g1374
sg75
(lp1381
S'8000'
p1382
asbasbasbag68
(g84
g70
NtRp1383
(dp1384
g73
(dp1385
sg82
g833
sg75
(lp1386
g68
(g89
g70
NtRp1387
(dp1388
g73
(dp1389
g93
g94
ssg82
g1383
sg75
(lp1390
S'server_protocol'
p1391
asbag68
(g89
g70
NtRp1392
(dp1393
g73
(dp1394
g100
g101
ssg82
g1383
sg75
(lp1395
S':'
asbag68
(g89
g70
NtRp1396
(dp1397
g73
(dp1398
sg82
g1383
sg75
(lp1399
g68
(g69
g70
NtRp1400
(dp1401
g73
(dp1402
g81
I4
ssg82
g1396
sg75
(lp1403
S'HTTP/1.1'
p1404
asbasbasbag68
(g84
g70
NtRp1405
(dp1406
g73
(dp1407
sg82
g833
sg75
(lp1408
g68
(g89
g70
NtRp1409
(dp1410
g73
(dp1411
g93
g94
ssg82
g1405
sg75
(lp1412
S'server_software'
p1413
asbag68
(g89
g70
NtRp1414
(dp1415
g73
(dp1416
g100
g101
ssg82
g1405
sg75
(lp1417
S':'
asbag68
(g89
g70
NtRp1418
(dp1419
g73
(dp1420
sg82
g1405
sg75
(lp1421
g68
(g69
g70
NtRp1422
(dp1423
g73
(dp1424
g81
I4
ssg82
g1418
sg75
(lp1425
S'Rocket 1.2.4'
p1426
asbasbasbag68
(g84
g70
NtRp1427
(dp1428
g73
(dp1429
sg82
g833
sg75
(lp1430
g68
(g89
g70
NtRp1431
(dp1432
g73
(dp1433
g93
g94
ssg82
g1427
sg75
(lp1434
S'web2py_crontype'
p1435
asbag68
(g89
g70
NtRp1436
(dp1437
g73
(dp1438
g100
g101
ssg82
g1427
sg75
(lp1439
S':'
asbag68
(g89
g70
NtRp1440
(dp1441
g73
(dp1442
sg82
g1427
sg75
(lp1443
g68
(g69
g70
NtRp1444
(dp1445
g73
(dp1446
g81
I4
ssg82
g1440
sg75
(lp1447
S'hard'
p1448
asbasbasbag68
(g84
g70
NtRp1449
(dp1450
g73
(dp1451
sg82
g833
sg75
(lp1452
g68
(g89
g70
NtRp1453
(dp1454
g73
(dp1455
g93
g94
ssg82
g1449
sg75
(lp1456
S'web2py_path'
p1457
asbag68
(g89
g70
NtRp1458
(dp1459
g73
(dp1460
g100
g101
ssg82
g1449
sg75
(lp1461
S':'
asbag68
(g89
g70
NtRp1462
(dp1463
g73
(dp1464
sg82
g1449
sg75
(lp1465
g68
(g69
g70
NtRp1466
(dp1467
g73
(dp1468
g81
I4
ssg82
g1462
sg75
(lp1469
g880
asbasbasbag68
(g84
g70
NtRp1470
(dp1471
g73
(dp1472
sg82
g833
sg75
(lp1473
g68
(g89
g70
NtRp1474
(dp1475
g73
(dp1476
g93
g94
ssg82
g1470
sg75
(lp1477
S'web2py_version'
p1478
asbag68
(g89
g70
NtRp1479
(dp1480
g73
(dp1481
g100
g101
ssg82
g1470
sg75
(lp1482
S':'
asbag68
(g89
g70
NtRp1483
(dp1484
g73
(dp1485
sg82
g1470
sg75
(lp1486
g68
(g69
g70
NtRp1487
(dp1488
g73
(dp1489
g81
I4
ssg82
g1483
sg75
(lp1490
g68
(g77
g70
NtRp1491
(dp1492
g73
(dp1493
g81
I3
ssg82
Nsg75
(lp1494
g68
(g84
g70
NtRp1495
(dp1496
g73
(dp1497
sg82
g1491
sg75
(lp1498
g68
(g89
g70
NtRp1499
(dp1500
g73
(dp1501
sg82
g1495
sg75
(lp1502
g68
(g69
g70
NtRp1503
(dp1504
g73
(dp1505
g81
I3
ssg82
g1499
sg75
(lp1506
S'1'
asbasbasbag68
(g84
g70
NtRp1507
(dp1508
g73
(dp1509
sg82
g1491
sg75
(lp1510
g68
(g89
g70
NtRp1511
(dp1512
g73
(dp1513
sg82
g1507
sg75
(lp1514
g68
(g69
g70
NtRp1515
(dp1516
g73
(dp1517
g81
I3
ssg82
g1511
sg75
(lp1518
S'99'
p1519
asbasbasbag68
(g84
g70
NtRp1520
(dp1521
g73
(dp1522
sg82
g1491
sg75
(lp1523
g68
(g89
g70
NtRp1524
(dp1525
g73
(dp1526
sg82
g1520
sg75
(lp1527
g68
(g69
g70
NtRp1528
(dp1529
g73
(dp1530
g81
I3
ssg82
g1524
sg75
(lp1531
S'7'
asbasbasbag68
(g84
g70
NtRp1532
(dp1533
g73
(dp1534
sg82
g1491
sg75
(lp1535
g68
(g89
g70
NtRp1536
(dp1537
g73
(dp1538
sg82
g1532
sg75
(lp1539
g68
(g69
g70
NtRp1540
(dp1541
g73
(dp1542
g81
I3
ssg82
g1536
sg75
(lp1543
S'datetime.datetime(2012, 3, 4, 22, 12, 8)'
p1544
asbasbasbag68
(g84
g70
NtRp1545
(dp1546
g73
(dp1547
sg82
g1491
sg75
(lp1548
g68
(g89
g70
NtRp1549
(dp1550
g73
(dp1551
sg82
g1545
sg75
(lp1552
g68
(g69
g70
NtRp1553
(dp1554
g73
(dp1555
g81
I3
ssg82
g1549
sg75
(lp1556
S'stable'
p1557
asbasbasbasbasbasbasbag68
(g84
g70
NtRp1558
(dp1559
g73
(dp1560
sg82
g833
sg75
(lp1561
g68
(g89
g70
NtRp1562
(dp1563
g73
(dp1564
g93
g94
ssg82
g1558
sg75
(lp1565
S'wsgi_errors'
p1566
asbag68
(g89
g70
NtRp1567
(dp1568
g73
(dp1569
g100
g101
ssg82
g1558
sg75
(lp1570
S':'
asbag68
(g89
g70
NtRp1571
(dp1572
g73
(dp1573
sg82
g1558
sg75
(lp1574
g68
(g69
g70
NtRp1575
(dp1576
g73
(dp1577
g81
I4
ssg82
g1571
sg75
(lp1578
S"<open file '<stderr>', mode 'w' at 0x7fbe0c85e1e0>"
p1579
asbasbasbag68
(g84
g70
NtRp1580
(dp1581
g73
(dp1582
sg82
g833
sg75
(lp1583
g68
(g89
g70
NtRp1584
(dp1585
g73
(dp1586
g93
g94
ssg82
g1580
sg75
(lp1587
S'wsgi_file_wrapper'
p1588
asbag68
(g89
g70
NtRp1589
(dp1590
g73
(dp1591
g100
g101
ssg82
g1580
sg75
(lp1592
S':'
asbag68
(g89
g70
NtRp1593
(dp1594
g73
(dp1595
sg82
g1580
sg75
(lp1596
g68
(g69
g70
NtRp1597
(dp1598
g73
(dp1599
g81
I4
ssg82
g1593
sg75
(lp1600
S'<class wsgiref.util.FileWrapper at 0x7fbe082e6598>'
p1601
asbasbasbag68
(g84
g70
NtRp1602
(dp1603
g73
(dp1604
sg82
g833
sg75
(lp1605
g68
(g89
g70
NtRp1606
(dp1607
g73
(dp1608
g93
g94
ssg82
g1602
sg75
(lp1609
S'wsgi_input'
p1610
asbag68
(g89
g70
NtRp1611
(dp1612
g73
(dp1613
g100
g101
ssg82
g1602
sg75
(lp1614
S':'
asbag68
(g89
g70
NtRp1615
(dp1616
g73
(dp1617
sg82
g1602
sg75
(lp1618
g68
(g69
g70
NtRp1619
(dp1620
g73
(dp1621
g81
I4
ssg82
g1615
sg75
(lp1622
S'<socket._fileobject object at 0x7fbdb35211d0>'
p1623
asbasbasbag68
(g84
g70
NtRp1624
(dp1625
g73
(dp1626
sg82
g833
sg75
(lp1627
g68
(g89
g70
NtRp1628
(dp1629
g73
(dp1630
g93
g94
ssg82
g1624
sg75
(lp1631
S'wsgi_multiprocess'
p1632
asbag68
(g89
g70
NtRp1633
(dp1634
g73
(dp1635
g100
g101
ssg82
g1624
sg75
(lp1636
S':'
asbag68
(g89
g70
NtRp1637
(dp1638
g73
(dp1639
sg82
g1624
sg75
(lp1640
g68
(g69
g70
NtRp1641
(dp1642
g73
(dp1643
g81
I4
ssg82
g1637
sg75
(lp1644
g111
asbasbasbag68
(g84
g70
NtRp1645
(dp1646
g73
(dp1647
sg82
g833
sg75
(lp1648
g68
(g89
g70
NtRp1649
(dp1650
g73
(dp1651
g93
g94
ssg82
g1645
sg75
(lp1652
S'wsgi_multithread'
p1653
asbag68
(g89
g70
NtRp1654
(dp1655
g73
(dp1656
g100
g101
ssg82
g1645
sg75
(lp1657
S':'
asbag68
(g89
g70
NtRp1658
(dp1659
g73
(dp1660
sg82
g1645
sg75
(lp1661
g68
(g69
g70
NtRp1662
(dp1663
g73
(dp1664
g81
I4
ssg82
g1658
sg75
(lp1665
S'True'
p1666
asbasbasbag68
(g84
g70
NtRp1667
(dp1668
g73
(dp1669
sg82
g833
sg75
(lp1670
g68
(g89
g70
NtRp1671
(dp1672
g73
(dp1673
g93
g94
ssg82
g1667
sg75
(lp1674
S'wsgi_run_once'
p1675
asbag68
(g89
g70
NtRp1676
(dp1677
g73
(dp1678
g100
g101
ssg82
g1667
sg75
(lp1679
S':'
asbag68
(g89
g70
NtRp1680
(dp1681
g73
(dp1682
sg82
g1667
sg75
(lp1683
g68
(g69
g70
NtRp1684
(dp1685
g73
(dp1686
g81
I4
ssg82
g1680
sg75
(lp1687
g111
asbasbasbag68
(g84
g70
NtRp1688
(dp1689
g73
(dp1690
sg82
g833
sg75
(lp1691
g68
(g89
g70
NtRp1692
(dp1693
g73
(dp1694
g93
g94
ssg82
g1688
sg75
(lp1695
S'wsgi_url_scheme'
p1696
asbag68
(g89
g70
NtRp1697
(dp1698
g73
(dp1699
g100
g101
ssg82
g1688
sg75
(lp1700
S':'
asbag68
(g89
g70
NtRp1701
(dp1702
g73
(dp1703
sg82
g1688
sg75
(lp1704
g68
(g69
g70
NtRp1705
(dp1706
g73
(dp1707
g81
I4
ssg82
g1701
sg75
(lp1708
S'http'
p1709
asbasbasbag68
(g84
g70
NtRp1710
(dp1711
g73
(dp1712
sg82
g833
sg75
(lp1713
g68
(g89
g70
NtRp1714
(dp1715
g73
(dp1716
g93
g94
ssg82
g1710
sg75
(lp1717
S'wsgi_version'
p1718
asbag68
(g89
g70
NtRp1719
(dp1720
g73
(dp1721
g100
g101
ssg82
g1710
sg75
(lp1722
S':'
asbag68
(g89
g70
NtRp1723
(dp1724
g73
(dp1725
sg82
g1710
sg75
(lp1726
g68
(g69
g70
NtRp1727
(dp1728
g73
(dp1729
g81
I4
ssg82
g1723
sg75
(lp1730
g68
(g77
g70
NtRp1731
(dp1732
g73
(dp1733
g81
I3
ssg82
Nsg75
(lp1734
g68
(g84
g70
NtRp1735
(dp1736
g73
(dp1737
sg82
g1731
sg75
(lp1738
g68
(g89
g70
NtRp1739
(dp1740
g73
(dp1741
sg82
g1735
sg75
(lp1742
g68
(g69
g70
NtRp1743
(dp1744
g73
(dp1745
g81
I3
ssg82
g1739
sg75
(lp1746
S'1'
asbasbasbag68
(g84
g70
NtRp1747
(dp1748
g73
(dp1749
sg82
g1731
sg75
(lp1750
g68
(g89
g70
NtRp1751
(dp1752
g73
(dp1753
sg82
g1747
sg75
(lp1754
g68
(g69
g70
NtRp1755
(dp1756
g73
(dp1757
g81
I3
ssg82
g1751
sg75
(lp1758
S'0'
asbasbasbasbasbasbasbasbasbasbasbag68
(g84
g70
NtRp1759
(dp1760
g73
(dp1761
sg82
g78
sg75
(lp1762
g68
(g89
g70
NtRp1763
(dp1764
g73
(dp1765
g93
g94
ssg82
g1759
sg75
(lp1766
S'extension'
p1767
asbag68
(g89
g70
NtRp1768
(dp1769
g73
(dp1770
g100
g101
ssg82
g1759
sg75
(lp1771
S':'
asbag68
(g89
g70
NtRp1772
(dp1773
g73
(dp1774
sg82
g1759
sg75
(lp1775
g68
(g69
g70
NtRp1776
(dp1777
g73
(dp1778
g81
I5
ssg82
g1772
sg75
(lp1779
S'html'
p1780
asbasbasbag68
(g84
g70
NtRp1781
(dp1782
g73
(dp1783
sg82
g78
sg75
(lp1784
g68
(g89
g70
NtRp1785
(dp1786
g73
(dp1787
g93
g94
ssg82
g1781
sg75
(lp1788
S'folder'
p1789
asbag68
(g89
g70
NtRp1790
(dp1791
g73
(dp1792
g100
g101
ssg82
g1781
sg75
(lp1793
S':'
asbag68
(g89
g70
NtRp1794
(dp1795
g73
(dp1796
sg82
g1781
sg75
(lp1797
g68
(g69
g70
NtRp1798
(dp1799
g73
(dp1800
g81
I5
ssg82
g1794
sg75
(lp1801
S'/home/shubham/web2py/applications/Search_Engine/'
p1802
asbasbasbag68
(g84
g70
NtRp1803
(dp1804
g73
(dp1805
sg82
g78
sg75
(lp1806
g68
(g89
g70
NtRp1807
(dp1808
g73
(dp1809
g93
g94
ssg82
g1803
sg75
(lp1810
S'function'
p1811
asbag68
(g89
g70
NtRp1812
(dp1813
g73
(dp1814
g100
g101
ssg82
g1803
sg75
(lp1815
S':'
asbag68
(g89
g70
NtRp1816
(dp1817
g73
(dp1818
sg82
g1803
sg75
(lp1819
g68
(g69
g70
NtRp1820
(dp1821
g73
(dp1822
g81
I5
ssg82
g1816
sg75
(lp1823
S'index'
p1824
asbasbasbag68
(g84
g70
NtRp1825
(dp1826
g73
(dp1827
sg82
g78
sg75
(lp1828
g68
(g89
g70
NtRp1829
(dp1830
g73
(dp1831
g93
g94
ssg82
g1825
sg75
(lp1832
S'get_vars'
p1833
asbag68
(g89
g70
NtRp1834
(dp1835
g73
(dp1836
g100
g101
ssg82
g1825
sg75
(lp1837
S':'
asbag68
(g89
g70
NtRp1838
(dp1839
g73
(dp1840
sg82
g1825
sg75
(lp1841
g68
(g69
g70
NtRp1842
(dp1843
g73
(dp1844
g81
I5
ssg82
g1838
sg75
(lp1845
g68
(g77
g70
NtRp1846
(dp1847
g73
(dp1848
g81
I4
ssg82
Nsg75
(lp1849
sbasbasbasbag68
(g84
g70
NtRp1850
(dp1851
g73
(dp1852
sg82
g78
sg75
(lp1853
g68
(g89
g70
NtRp1854
(dp1855
g73
(dp1856
g93
g94
ssg82
g1850
sg75
(lp1857
S'global_settings'
p1858
asbag68
(g89
g70
NtRp1859
(dp1860
g73
(dp1861
g100
g101
ssg82
g1850
sg75
(lp1862
S':'
asbag68
(g89
g70
NtRp1863
(dp1864
g73
(dp1865
sg82
g1850
sg75
(lp1866
g68
(g69
g70
NtRp1867
(dp1868
g73
(dp1869
g81
I5
ssg82
g1863
sg75
(lp1870
g68
(g77
g70
NtRp1871
(dp1872
g73
(dp1873
g81
I4
ssg82
Nsg75
(lp1874
g68
(g84
g70
NtRp1875
(dp1876
g73
(dp1877
sg82
g1871
sg75
(lp1878
g68
(g89
g70
NtRp1879
(dp1880
g73
(dp1881
g93
g94
ssg82
g1875
sg75
(lp1882
g845
asbag68
(g89
g70
NtRp1883
(dp1884
g73
(dp1885
g100
g101
ssg82
g1875
sg75
(lp1886
S':'
asbag68
(g89
g70
NtRp1887
(dp1888
g73
(dp1889
sg82
g1875
sg75
(lp1890
g68
(g69
g70
NtRp1891
(dp1892
g73
(dp1893
g81
I4
ssg82
g1887
sg75
(lp1894
S"set(['/home/shubham/web2py/applications/Search_Engine/', '/home/shubham/web2py/applications/admin/', '/home/shubham/web2py/applications/welcome/'])"
p1895
asbasbasbag68
(g84
g70
NtRp1896
(dp1897
g73
(dp1898
sg82
g1871
sg75
(lp1899
g68
(g89
g70
NtRp1900
(dp1901
g73
(dp1902
g93
g94
ssg82
g1896
sg75
(lp1903
g867
asbag68
(g89
g70
NtRp1904
(dp1905
g73
(dp1906
g100
g101
ssg82
g1896
sg75
(lp1907
S':'
asbag68
(g89
g70
NtRp1908
(dp1909
g73
(dp1910
sg82
g1896
sg75
(lp1911
g68
(g69
g70
NtRp1912
(dp1913
g73
(dp1914
g81
I4
ssg82
g1908
sg75
(lp1915
g880
asbasbasbag68
(g84
g70
NtRp1916
(dp1917
g73
(dp1918
sg82
g1871
sg75
(lp1919
g68
(g89
g70
NtRp1920
(dp1921
g73
(dp1922
g93
g94
ssg82
g1916
sg75
(lp1923
g889
asbag68
(g89
g70
NtRp1924
(dp1925
g73
(dp1926
g100
g101
ssg82
g1916
sg75
(lp1927
S':'
asbag68
(g89
g70
NtRp1928
(dp1929
g73
(dp1930
sg82
g1916
sg75
(lp1931
g68
(g69
g70
NtRp1932
(dp1933
g73
(dp1934
g81
I4
ssg82
g1928
sg75
(lp1935
g68
(g77
g70
NtRp1936
(dp1937
g73
(dp1938
g81
I3
ssg82
Nsg75
(lp1939
sbasbasbasbag68
(g84
g70
NtRp1940
(dp1941
g73
(dp1942
sg82
g1871
sg75
(lp1943
g68
(g89
g70
NtRp1944
(dp1945
g73
(dp1946
g93
g94
ssg82
g1940
sg75
(lp1947
g914
asbag68
(g89
g70
NtRp1948
(dp1949
g73
(dp1950
g100
g101
ssg82
g1940
sg75
(lp1951
S':'
asbag68
(g89
g70
NtRp1952
(dp1953
g73
(dp1954
sg82
g1940
sg75
(lp1955
g68
(g69
g70
NtRp1956
(dp1957
g73
(dp1958
g81
I4
ssg82
g1952
sg75
(lp1959
S"<Values at 0x7fbe0ab47758: {'verbose': False, 'ip': '127.0.0.1', 'shutdown_timeout': 5, 'taskbar': False, 'nocron': False, 'pid_filename': 'httpserver.pid', 'maxthreads': None, 'softcron': False, 'server_name': 'shubham-HCL-Desktop', 'bpython': False, 'nogui': False, 'port': 8000, 'extcron': False, 'debuglevel': 30, 'test': None, 'folder': '/home/shubham/web2py', 'config': '', 'import_models': False, 'winservice': '', 'shell': None, 'run': '', 'log_filename': 'httpserver.log', 'args': [''], 'socket_timeout': 5, 'ssl_ca_certificate': None, 'scheduler': None, 'profiler_filename': None, 'ssl_private_key': '', 'password': '<ask>', 'request_queue_size': 5, 'ssl_certificate': '', 'cronjob': False, 'numthreads': None, 'quiet': False, 'interfaces': None, 'minthreads': None, 'timeout': 10, 'plain': False, 'nobanner': False}>"
p1960
asbasbasbag68
(g84
g70
NtRp1961
(dp1962
g73
(dp1963
sg82
g1871
sg75
(lp1964
g68
(g89
g70
NtRp1965
(dp1966
g73
(dp1967
g93
g94
ssg82
g1961
sg75
(lp1968
g936
asbag68
(g89
g70
NtRp1969
(dp1970
g73
(dp1971
g100
g101
ssg82
g1961
sg75
(lp1972
S':'
asbag68
(g89
g70
NtRp1973
(dp1974
g73
(dp1975
sg82
g1961
sg75
(lp1976
g68
(g69
g70
NtRp1977
(dp1978
g73
(dp1979
g81
I4
ssg82
g1973
sg75
(lp1980
S'set([])'
p1981
asbasbasbag68
(g84
g70
NtRp1982
(dp1983
g73
(dp1984
sg82
g1871
sg75
(lp1985
g68
(g89
g70
NtRp1986
(dp1987
g73
(dp1988
g93
g94
ssg82
g1982
sg75
(lp1989
g958
asbag68
(g89
g70
NtRp1990
(dp1991
g73
(dp1992
g100
g101
ssg82
g1982
sg75
(lp1993
S':'
asbag68
(g89
g70
NtRp1994
(dp1995
g73
(dp1996
sg82
g1982
sg75
(lp1997
g68
(g69
g70
NtRp1998
(dp1999
g73
(dp2000
g81
I4
ssg82
g1994
sg75
(lp2001
g111
asbasbasbag68
(g84
g70
NtRp2002
(dp2003
g73
(dp2004
sg82
g1871
sg75
(lp2005
g68
(g89
g70
NtRp2006
(dp2007
g73
(dp2008
g93
g94
ssg82
g2002
sg75
(lp2009
g979
asbag68
(g89
g70
NtRp2010
(dp2011
g73
(dp2012
g100
g101
ssg82
g2002
sg75
(lp2013
S':'
asbag68
(g89
g70
NtRp2014
(dp2015
g73
(dp2016
sg82
g2002
sg75
(lp2017
g68
(g69
g70
NtRp2018
(dp2019
g73
(dp2020
g81
I4
ssg82
g2014
sg75
(lp2021
g992
asbasbasbag68
(g84
g70
NtRp2022
(dp2023
g73
(dp2024
sg82
g1871
sg75
(lp2025
g68
(g89
g70
NtRp2026
(dp2027
g73
(dp2028
g93
g94
ssg82
g2022
sg75
(lp2029
g1176
asbag68
(g89
g70
NtRp2030
(dp2031
g73
(dp2032
g100
g101
ssg82
g2022
sg75
(lp2033
S':'
asbag68
(g89
g70
NtRp2034
(dp2035
g73
(dp2036
sg82
g2022
sg75
(lp2037
g68
(g69
g70
NtRp2038
(dp2039
g73
(dp2040
g81
I4
ssg82
g2034
sg75
(lp2041
g111
asbasbasbag68
(g84
g70
NtRp2042
(dp2043
g73
(dp2044
sg82
g1871
sg75
(lp2045
g68
(g89
g70
NtRp2046
(dp2047
g73
(dp2048
g93
g94
ssg82
g2042
sg75
(lp2049
g1197
asbag68
(g89
g70
NtRp2050
(dp2051
g73
(dp2052
g100
g101
ssg82
g2042
sg75
(lp2053
S':'
asbag68
(g89
g70
NtRp2054
(dp2055
g73
(dp2056
sg82
g2042
sg75
(lp2057
g68
(g69
g70
NtRp2058
(dp2059
g73
(dp2060
g81
I4
ssg82
g2054
sg75
(lp2061
g111
asbasbasbag68
(g84
g70
NtRp2062
(dp2063
g73
(dp2064
sg82
g1871
sg75
(lp2065
g68
(g89
g70
NtRp2066
(dp2067
g73
(dp2068
g93
g94
ssg82
g2062
sg75
(lp2069
g1435
asbag68
(g89
g70
NtRp2070
(dp2071
g73
(dp2072
g100
g101
ssg82
g2062
sg75
(lp2073
S':'
asbag68
(g89
g70
NtRp2074
(dp2075
g73
(dp2076
sg82
g2062
sg75
(lp2077
g68
(g69
g70
NtRp2078
(dp2079
g73
(dp2080
g81
I4
ssg82
g2074
sg75
(lp2081
g1448
asbasbasbag68
(g84
g70
NtRp2082
(dp2083
g73
(dp2084
sg82
g1871
sg75
(lp2085
g68
(g89
g70
NtRp2086
(dp2087
g73
(dp2088
g93
g94
ssg82
g2082
sg75
(lp2089
g1478
asbag68
(g89
g70
NtRp2090
(dp2091
g73
(dp2092
g100
g101
ssg82
g2082
sg75
(lp2093
S':'
asbag68
(g89
g70
NtRp2094
(dp2095
g73
(dp2096
sg82
g2082
sg75
(lp2097
g68
(g69
g70
NtRp2098
(dp2099
g73
(dp2100
g81
I4
ssg82
g2094
sg75
(lp2101
g68
(g77
g70
NtRp2102
(dp2103
g73
(dp2104
g81
I3
ssg82
Nsg75
(lp2105
g68
(g84
g70
NtRp2106
(dp2107
g73
(dp2108
sg82
g2102
sg75
(lp2109
g68
(g89
g70
NtRp2110
(dp2111
g73
(dp2112
sg82
g2106
sg75
(lp2113
g68
(g69
g70
NtRp2114
(dp2115
g73
(dp2116
g81
I3
ssg82
g2110
sg75
(lp2117
S'1'
asbasbasbag68
(g84
g70
NtRp2118
(dp2119
g73
(dp2120
sg82
g2102
sg75
(lp2121
g68
(g89
g70
NtRp2122
(dp2123
g73
(dp2124
sg82
g2118
sg75
(lp2125
g68
(g69
g70
NtRp2126
(dp2127
g73
(dp2128
g81
I3
ssg82
g2122
sg75
(lp2129
S'99'
p2130
asbasbasbag68
(g84
g70
NtRp2131
(dp2132
g73
(dp2133
sg82
g2102
sg75
(lp2134
g68
(g89
g70
NtRp2135
(dp2136
g73
(dp2137
sg82
g2131
sg75
(lp2138
g68
(g69
g70
NtRp2139
(dp2140
g73
(dp2141
g81
I3
ssg82
g2135
sg75
(lp2142
S'7'
asbasbasbag68
(g84
g70
NtRp2143
(dp2144
g73
(dp2145
sg82
g2102
sg75
(lp2146
g68
(g89
g70
NtRp2147
(dp2148
g73
(dp2149
sg82
g2143
sg75
(lp2150
g68
(g69
g70
NtRp2151
(dp2152
g73
(dp2153
g81
I3
ssg82
g2147
sg75
(lp2154
S'datetime.datetime(2012, 3, 4, 22, 12, 8)'
p2155
asbasbasbag68
(g84
g70
NtRp2156
(dp2157
g73
(dp2158
sg82
g2102
sg75
(lp2159
g68
(g89
g70
NtRp2160
(dp2161
g73
(dp2162
sg82
g2156
sg75
(lp2163
g68
(g69
g70
NtRp2164
(dp2165
g73
(dp2166
g81
I3
ssg82
g2160
sg75
(lp2167
g1557
asbasbasbasbasbasbasbasbasbasbasbag68
(g84
g70
NtRp2168
(dp2169
g73
(dp2170
sg82
g78
sg75
(lp2171
g68
(g89
g70
NtRp2172
(dp2173
g73
(dp2174
g93
g94
ssg82
g2168
sg75
(lp2175
S'is_https'
p2176
asbag68
(g89
g70
NtRp2177
(dp2178
g73
(dp2179
g100
g101
ssg82
g2168
sg75
(lp2180
S':'
asbag68
(g89
g70
NtRp2181
(dp2182
g73
(dp2183
sg82
g2168
sg75
(lp2184
g68
(g69
g70
NtRp2185
(dp2186
g73
(dp2187
g81
I5
ssg82
g2181
sg75
(lp2188
g111
asbasbasbag68
(g84
g70
NtRp2189
(dp2190
g73
(dp2191
sg82
g78
sg75
(lp2192
g68
(g89
g70
NtRp2193
(dp2194
g73
(dp2195
g93
g94
ssg82
g2189
sg75
(lp2196
S'is_local'
p2197
asbag68
(g89
g70
NtRp2198
(dp2199
g73
(dp2200
g100
g101
ssg82
g2189
sg75
(lp2201
S':'
asbag68
(g89
g70
NtRp2202
(dp2203
g73
(dp2204
sg82
g2189
sg75
(lp2205
g68
(g69
g70
NtRp2206
(dp2207
g73
(dp2208
g81
I5
ssg82
g2202
sg75
(lp2209
g1666
asbasbasbag68
(g84
g70
NtRp2210
(dp2211
g73
(dp2212
sg82
g78
sg75
(lp2213
g68
(g89
g70
NtRp2214
(dp2215
g73
(dp2216
g93
g94
ssg82
g2210
sg75
(lp2217
S'is_restful'
p2218
asbag68
(g89
g70
NtRp2219
(dp2220
g73
(dp2221
g100
g101
ssg82
g2210
sg75
(lp2222
S':'
asbag68
(g89
g70
NtRp2223
(dp2224
g73
(dp2225
sg82
g2210
sg75
(lp2226
g68
(g69
g70
NtRp2227
(dp2228
g73
(dp2229
g81
I5
ssg82
g2223
sg75
(lp2230
g111
asbasbasbag68
(g84
g70
NtRp2231
(dp2232
g73
(dp2233
sg82
g78
sg75
(lp2234
g68
(g89
g70
NtRp2235
(dp2236
g73
(dp2237
g93
g94
ssg82
g2231
sg75
(lp2238
S'now'
p2239
asbag68
(g89
g70
NtRp2240
(dp2241
g73
(dp2242
g100
g101
ssg82
g2231
sg75
(lp2243
S':'
asbag68
(g89
g70
NtRp2244
(dp2245
g73
(dp2246
sg82
g2231
sg75
(lp2247
g68
(g69
g70
NtRp2248
(dp2249
g73
(dp2250
g81
I5
ssg82
g2244
sg75
(lp2251
S'datetime.datetime(2015, 9, 2, 14, 6, 27, 105341)'
p2252
asbasbasbag68
(g84
g70
NtRp2253
(dp2254
g73
(dp2255
sg82
g78
sg75
(lp2256
g68
(g89
g70
NtRp2257
(dp2258
g73
(dp2259
g93
g94
ssg82
g2253
sg75
(lp2260
S'post_vars'
p2261
asbag68
(g89
g70
NtRp2262
(dp2263
g73
(dp2264
g100
g101
ssg82
g2253
sg75
(lp2265
S':'
asbag68
(g89
g70
NtRp2266
(dp2267
g73
(dp2268
sg82
g2253
sg75
(lp2269
g68
(g69
g70
NtRp2270
(dp2271
g73
(dp2272
g81
I5
ssg82
g2266
sg75
(lp2273
g68
(g77
g70
NtRp2274
(dp2275
g73
(dp2276
g81
I4
ssg82
Nsg75
(lp2277
sbasbasbasbag68
(g84
g70
NtRp2278
(dp2279
g73
(dp2280
sg82
g78
sg75
(lp2281
g68
(g89
g70
NtRp2282
(dp2283
g73
(dp2284
g93
g94
ssg82
g2278
sg75
(lp2285
S'url'
p2286
asbag68
(g89
g70
NtRp2287
(dp2288
g73
(dp2289
g100
g101
ssg82
g2278
sg75
(lp2290
S':'
asbag68
(g89
g70
NtRp2291
(dp2292
g73
(dp2293
sg82
g2278
sg75
(lp2294
g68
(g69
g70
NtRp2295
(dp2296
g73
(dp2297
g81
I5
ssg82
g2291
sg75
(lp2298
S'/Search_Engine/search/index'
p2299
asbasbasbag68
(g84
g70
NtRp2300
(dp2301
g73
(dp2302
sg82
g78
sg75
(lp2303
g68
(g89
g70
NtRp2304
(dp2305
g73
(dp2306
g93
g94
ssg82
g2300
sg75
(lp2307
S'utcnow'
p2308
asbag68
(g89
g70
NtRp2309
(dp2310
g73
(dp2311
g100
g101
ssg82
g2300
sg75
(lp2312
S':'
asbag68
(g89
g70
NtRp2313
(dp2314
g73
(dp2315
sg82
g2300
sg75
(lp2316
g68
(g69
g70
NtRp2317
(dp2318
g73
(dp2319
g81
I5
ssg82
g2313
sg75
(lp2320
S'datetime.datetime(2015, 9, 2, 8, 36, 27, 105373)'
p2321
asbasbasbag68
(g84
g70
NtRp2322
(dp2323
g73
(dp2324
sg82
g78
sg75
(lp2325
g68
(g89
g70
NtRp2326
(dp2327
g73
(dp2328
g93
g94
ssg82
g2322
sg75
(lp2329
S'uuid'
p2330
asbag68
(g89
g70
NtRp2331
(dp2332
g73
(dp2333
g100
g101
ssg82
g2322
sg75
(lp2334
S':'
asbag68
(g89
g70
NtRp2335
(dp2336
g73
(dp2337
sg82
g2322
sg75
(lp2338
g68
(g69
g70
NtRp2339
(dp2340
g73
(dp2341
g81
I5
ssg82
g2335
sg75
(lp2342
S'Search_Engine/127.0.0.1.2015-09-02.14-06-27.bafcfbc6-6f54-4dc7-99f7-2e8eaab2e087'
p2343
asbasbasbag68
(g84
g70
NtRp2344
(dp2345
g73
(dp2346
sg82
g78
sg75
(lp2347
g68
(g89
g70
NtRp2348
(dp2349
g73
(dp2350
g93
g94
ssg82
g2344
sg75
(lp2351
S'vars'
p2352
asbag68
(g89
g70
NtRp2353
(dp2354
g73
(dp2355
g100
g101
ssg82
g2344
sg75
(lp2356
S':'
asbag68
(g89
g70
NtRp2357
(dp2358
g73
(dp2359
sg82
g2344
sg75
(lp2360
g68
(g69
g70
NtRp2361
(dp2362
g73
(dp2363
g81
I5
ssg82
g2357
sg75
(lp2364
g68
(g77
g70
NtRp2365
(dp2366
g73
(dp2367
g81
I4
ssg82
Nsg75
(lp2368
sbasbasbasbag68
(g84
g70
NtRp2369
(dp2370
g73
(dp2371
sg82
g78
sg75
(lp2372
g68
(g89
g70
NtRp2373
(dp2374
g73
(dp2375
g93
g94
ssg82
g2369
sg75
(lp2376
S'wsgi'
p2377
asbag68
(g89
g70
NtRp2378
(dp2379
g73
(dp2380
g100
g101
ssg82
g2369
sg75
(lp2381
S':'
asbag68
(g89
g70
NtRp2382
(dp2383
g73
(dp2384
sg82
g2369
sg75
(lp2385
g68
(g69
g70
NtRp2386
(dp2387
g73
(dp2388
g81
I5
ssg82
g2382
sg75
(lp2389
g68
(g77
g70
NtRp2390
(dp2391
g73
(dp2392
g81
I4
ssg82
Nsg75
(lp2393
g68
(g84
g70
NtRp2394
(dp2395
g73
(dp2396
sg82
g2390
sg75
(lp2397
g68
(g89
g70
NtRp2398
(dp2399
g73
(dp2400
g93
g94
ssg82
g2394
sg75
(lp2401
S'environ'
p2402
asbag68
(g89
g70
NtRp2403
(dp2404
g73
(dp2405
g100
g101
ssg82
g2394
sg75
(lp2406
S':'
asbag68
(g89
g70
NtRp2407
(dp2408
g73
(dp2409
sg82
g2394
sg75
(lp2410
g68
(g69
g70
NtRp2411
(dp2412
g73
(dp2413
g81
I4
ssg82
g2407
sg75
(lp2414
g68
(g77
g70
NtRp2415
(dp2416
g73
(dp2417
g81
I3
ssg82
Nsg75
(lp2418
g68
(g84
g70
NtRp2419
(dp2420
g73
(dp2421
sg82
g2415
sg75
(lp2422
g68
(g89
g70
NtRp2423
(dp2424
g73
(dp2425
g93
g94
ssg82
g2419
sg75
(lp2426
S'HTTP_ACCEPT'
p2427
asbag68
(g89
g70
NtRp2428
(dp2429
g73
(dp2430
g100
g101
ssg82
g2419
sg75
(lp2431
S':'
asbag68
(g89
g70
NtRp2432
(dp2433
g73
(dp2434
sg82
g2419
sg75
(lp2435
g68
(g69
g70
NtRp2436
(dp2437
g73
(dp2438
g81
I3
ssg82
g2432
sg75
(lp2439
g1014
asbasbasbag68
(g84
g70
NtRp2440
(dp2441
g73
(dp2442
sg82
g2415
sg75
(lp2443
g68
(g89
g70
NtRp2444
(dp2445
g73
(dp2446
g93
g94
ssg82
g2440
sg75
(lp2447
S'HTTP_ACCEPT_ENCODING'
p2448
asbag68
(g89
g70
NtRp2449
(dp2450
g73
(dp2451
g100
g101
ssg82
g2440
sg75
(lp2452
S':'
asbag68
(g89
g70
NtRp2453
(dp2454
g73
(dp2455
sg82
g2440
sg75
(lp2456
g68
(g69
g70
NtRp2457
(dp2458
g73
(dp2459
g81
I3
ssg82
g2453
sg75
(lp2460
g1036
asbasbasbag68
(g84
g70
NtRp2461
(dp2462
g73
(dp2463
sg82
g2415
sg75
(lp2464
g68
(g89
g70
NtRp2465
(dp2466
g73
(dp2467
g93
g94
ssg82
g2461
sg75
(lp2468
S'HTTP_ACCEPT_LANGUAGE'
p2469
asbag68
(g89
g70
NtRp2470
(dp2471
g73
(dp2472
g100
g101
ssg82
g2461
sg75
(lp2473
S':'
asbag68
(g89
g70
NtRp2474
(dp2475
g73
(dp2476
sg82
g2461
sg75
(lp2477
g68
(g69
g70
NtRp2478
(dp2479
g73
(dp2480
g81
I3
ssg82
g2474
sg75
(lp2481
g1058
asbasbasbag68
(g84
g70
NtRp2482
(dp2483
g73
(dp2484
sg82
g2415
sg75
(lp2485
g68
(g89
g70
NtRp2486
(dp2487
g73
(dp2488
g93
g94
ssg82
g2482
sg75
(lp2489
S'HTTP_CONNECTION'
p2490
asbag68
(g89
g70
NtRp2491
(dp2492
g73
(dp2493
g100
g101
ssg82
g2482
sg75
(lp2494
S':'
asbag68
(g89
g70
NtRp2495
(dp2496
g73
(dp2497
sg82
g2482
sg75
(lp2498
g68
(g69
g70
NtRp2499
(dp2500
g73
(dp2501
g81
I3
ssg82
g2495
sg75
(lp2502
g1080
asbasbasbag68
(g84
g70
NtRp2503
(dp2504
g73
(dp2505
sg82
g2415
sg75
(lp2506
g68
(g89
g70
NtRp2507
(dp2508
g73
(dp2509
g93
g94
ssg82
g2503
sg75
(lp2510
S'HTTP_COOKIE'
p2511
asbag68
(g89
g70
NtRp2512
(dp2513
g73
(dp2514
g100
g101
ssg82
g2503
sg75
(lp2515
S':'
asbag68
(g89
g70
NtRp2516
(dp2517
g73
(dp2518
sg82
g2503
sg75
(lp2519
g68
(g69
g70
NtRp2520
(dp2521
g73
(dp2522
g81
I3
ssg82
g2516
sg75
(lp2523
g1102
asbasbasbag68
(g84
g70
NtRp2524
(dp2525
g73
(dp2526
sg82
g2415
sg75
(lp2527
g68
(g89
g70
NtRp2528
(dp2529
g73
(dp2530
g93
g94
ssg82
g2524
sg75
(lp2531
S'HTTP_HOST'
p2532
asbag68
(g89
g70
NtRp2533
(dp2534
g73
(dp2535
g100
g101
ssg82
g2524
sg75
(lp2536
S':'
asbag68
(g89
g70
NtRp2537
(dp2538
g73
(dp2539
sg82
g2524
sg75
(lp2540
g68
(g69
g70
NtRp2541
(dp2542
g73
(dp2543
g81
I3
ssg82
g2537
sg75
(lp2544
g1124
asbasbasbag68
(g84
g70
NtRp2545
(dp2546
g73
(dp2547
sg82
g2415
sg75
(lp2548
g68
(g89
g70
NtRp2549
(dp2550
g73
(dp2551
g93
g94
ssg82
g2545
sg75
(lp2552
S'HTTP_UPGRADE_INSECURE_REQUESTS'
p2553
asbag68
(g89
g70
NtRp2554
(dp2555
g73
(dp2556
g100
g101
ssg82
g2545
sg75
(lp2557
S':'
asbag68
(g89
g70
NtRp2558
(dp2559
g73
(dp2560
sg82
g2545
sg75
(lp2561
g68
(g69
g70
NtRp2562
(dp2563
g73
(dp2564
g81
I3
ssg82
g2558
sg75
(lp2565
S'1'
asbasbasbag68
(g84
g70
NtRp2566
(dp2567
g73
(dp2568
sg82
g2415
sg75
(lp2569
g68
(g89
g70
NtRp2570
(dp2571
g73
(dp2572
g93
g94
ssg82
g2566
sg75
(lp2573
S'HTTP_USER_AGENT'
p2574
asbag68
(g89
g70
NtRp2575
(dp2576
g73
(dp2577
g100
g101
ssg82
g2566
sg75
(lp2578
S':'
asbag68
(g89
g70
NtRp2579
(dp2580
g73
(dp2581
sg82
g2566
sg75
(lp2582
g68
(g69
g70
NtRp2583
(dp2584
g73
(dp2585
g81
I3
ssg82
g2579
sg75
(lp2586
g1167
asbasbasbag68
(g84
g70
NtRp2587
(dp2588
g73
(dp2589
sg82
g2415
sg75
(lp2590
g68
(g89
g70
NtRp2591
(dp2592
g73
(dp2593
g93
g94
ssg82
g2587
sg75
(lp2594
S'PATH_INFO'
p2595
asbag68
(g89
g70
NtRp2596
(dp2597
g73
(dp2598
g100
g101
ssg82
g2587
sg75
(lp2599
S':'
asbag68
(g89
g70
NtRp2600
(dp2601
g73
(dp2602
sg82
g2587
sg75
(lp2603
g68
(g69
g70
NtRp2604
(dp2605
g73
(dp2606
g81
I3
ssg82
g2600
sg75
(lp2607
g1231
asbasbasbag68
(g84
g70
NtRp2608
(dp2609
g73
(dp2610
sg82
g2415
sg75
(lp2611
g68
(g89
g70
NtRp2612
(dp2613
g73
(dp2614
g93
g94
ssg82
g2608
sg75
(lp2615
S'QUERY_STRING'
p2616
asbag68
(g89
g70
NtRp2617
(dp2618
g73
(dp2619
g100
g101
ssg82
g2608
sg75
(lp2620
S':'
asbag68
(g89
g70
NtRp2621
(dp2622
g73
(dp2623
sg82
g2608
sg75
(lp2624
g68
(g69
g70
NtRp2625
(dp2626
g73
(dp2627
g81
I3
ssg82
g2621
sg75
(lp2628
S''
asbasbasbag68
(g84
g70
NtRp2629
(dp2630
g73
(dp2631
sg82
g2415
sg75
(lp2632
g68
(g89
g70
NtRp2633
(dp2634
g73
(dp2635
g93
g94
ssg82
g2629
sg75
(lp2636
S'REMOTE_ADDR'
p2637
asbag68
(g89
g70
NtRp2638
(dp2639
g73
(dp2640
g100
g101
ssg82
g2629
sg75
(lp2641
S':'
asbag68
(g89
g70
NtRp2642
(dp2643
g73
(dp2644
sg82
g2629
sg75
(lp2645
g68
(g69
g70
NtRp2646
(dp2647
g73
(dp2648
g81
I3
ssg82
g2642
sg75
(lp2649
g201
asbasbasbag68
(g84
g70
NtRp2650
(dp2651
g73
(dp2652
sg82
g2415
sg75
(lp2653
g68
(g89
g70
NtRp2654
(dp2655
g73
(dp2656
g93
g94
ssg82
g2650
sg75
(lp2657
S'REMOTE_PORT'
p2658
asbag68
(g89
g70
NtRp2659
(dp2660
g73
(dp2661
g100
g101
ssg82
g2650
sg75
(lp2662
S':'
asbag68
(g89
g70
NtRp2663
(dp2664
g73
(dp2665
sg82
g2650
sg75
(lp2666
g68
(g69
g70
NtRp2667
(dp2668
g73
(dp2669
g81
I3
ssg82
g2663
sg75
(lp2670
g1295
asbasbasbag68
(g84
g70
NtRp2671
(dp2672
g73
(dp2673
sg82
g2415
sg75
(lp2674
g68
(g89
g70
NtRp2675
(dp2676
g73
(dp2677
g93
g94
ssg82
g2671
sg75
(lp2678
S'REQUEST_METHOD'
p2679
asbag68
(g89
g70
NtRp2680
(dp2681
g73
(dp2682
g100
g101
ssg82
g2671
sg75
(lp2683
S':'
asbag68
(g89
g70
NtRp2684
(dp2685
g73
(dp2686
sg82
g2671
sg75
(lp2687
g68
(g69
g70
NtRp2688
(dp2689
g73
(dp2690
g81
I3
ssg82
g2684
sg75
(lp2691
g1317
asbasbasbag68
(g84
g70
NtRp2692
(dp2693
g73
(dp2694
sg82
g2415
sg75
(lp2695
g68
(g89
g70
NtRp2696
(dp2697
g73
(dp2698
g93
g94
ssg82
g2692
sg75
(lp2699
S'SCRIPT_NAME'
p2700
asbag68
(g89
g70
NtRp2701
(dp2702
g73
(dp2703
g100
g101
ssg82
g2692
sg75
(lp2704
S':'
asbag68
(g89
g70
NtRp2705
(dp2706
g73
(dp2707
sg82
g2692
sg75
(lp2708
g68
(g69
g70
NtRp2709
(dp2710
g73
(dp2711
g81
I3
ssg82
g2705
sg75
(lp2712
S''
asbasbasbag68
(g84
g70
NtRp2713
(dp2714
g73
(dp2715
sg82
g2415
sg75
(lp2716
g68
(g89
g70
NtRp2717
(dp2718
g73
(dp2719
g93
g94
ssg82
g2713
sg75
(lp2720
S'SERVER_NAME'
p2721
asbag68
(g89
g70
NtRp2722
(dp2723
g73
(dp2724
g100
g101
ssg82
g2713
sg75
(lp2725
S':'
asbag68
(g89
g70
NtRp2726
(dp2727
g73
(dp2728
sg82
g2713
sg75
(lp2729
g68
(g69
g70
NtRp2730
(dp2731
g73
(dp2732
g81
I3
ssg82
g2726
sg75
(lp2733
g1360
asbasbasbag68
(g84
g70
NtRp2734
(dp2735
g73
(dp2736
sg82
g2415
sg75
(lp2737
g68
(g89
g70
NtRp2738
(dp2739
g73
(dp2740
g93
g94
ssg82
g2734
sg75
(lp2741
S'SERVER_PORT'
p2742
asbag68
(g89
g70
NtRp2743
(dp2744
g73
(dp2745
g100
g101
ssg82
g2734
sg75
(lp2746
S':'
asbag68
(g89
g70
NtRp2747
(dp2748
g73
(dp2749
sg82
g2734
sg75
(lp2750
g68
(g69
g70
NtRp2751
(dp2752
g73
(dp2753
g81
I3
ssg82
g2747
sg75
(lp2754
g1382
asbasbasbag68
(g84
g70
NtRp2755
(dp2756
g73
(dp2757
sg82
g2415
sg75
(lp2758
g68
(g89
g70
NtRp2759
(dp2760
g73
(dp2761
g93
g94
ssg82
g2755
sg75
(lp2762
S'SERVER_PROTOCOL'
p2763
asbag68
(g89
g70
NtRp2764
(dp2765
g73
(dp2766
g100
g101
ssg82
g2755
sg75
(lp2767
S':'
asbag68
(g89
g70
NtRp2768
(dp2769
g73
(dp2770
sg82
g2755
sg75
(lp2771
g68
(g69
g70
NtRp2772
(dp2773
g73
(dp2774
g81
I3
ssg82
g2768
sg75
(lp2775
g1404
asbasbasbag68
(g84
g70
NtRp2776
(dp2777
g73
(dp2778
sg82
g2415
sg75
(lp2779
g68
(g89
g70
NtRp2780
(dp2781
g73
(dp2782
g93
g94
ssg82
g2776
sg75
(lp2783
S'SERVER_SOFTWARE'
p2784
asbag68
(g89
g70
NtRp2785
(dp2786
g73
(dp2787
g100
g101
ssg82
g2776
sg75
(lp2788
S':'
asbag68
(g89
g70
NtRp2789
(dp2790
g73
(dp2791
sg82
g2776
sg75
(lp2792
g68
(g69
g70
NtRp2793
(dp2794
g73
(dp2795
g81
I3
ssg82
g2789
sg75
(lp2796
g1426
asbasbasbag68
(g84
g70
NtRp2797
(dp2798
g73
(dp2799
sg82
g2415
sg75
(lp2800
g68
(g89
g70
NtRp2801
(dp2802
g73
(dp2803
g93
g94
ssg82
g2797
sg75
(lp2804
S'wsgi.errors'
p2805
asbag68
(g89
g70
NtRp2806
(dp2807
g73
(dp2808
g100
g101
ssg82
g2797
sg75
(lp2809
S':'
asbag68
(g89
g70
NtRp2810
(dp2811
g73
(dp2812
sg82
g2797
sg75
(lp2813
g68
(g69
g70
NtRp2814
(dp2815
g73
(dp2816
g81
I3
ssg82
g2810
sg75
(lp2817
S"<open file '<stderr>', mode 'w' at 0x7fbe0c85e1e0>"
p2818
asbasbasbag68
(g84
g70
NtRp2819
(dp2820
g73
(dp2821
sg82
g2415
sg75
(lp2822
g68
(g89
g70
NtRp2823
(dp2824
g73
(dp2825
g93
g94
ssg82
g2819
sg75
(lp2826
S'wsgi.file_wrapper'
p2827
asbag68
(g89
g70
NtRp2828
(dp2829
g73
(dp2830
g100
g101
ssg82
g2819
sg75
(lp2831
S':'
asbag68
(g89
g70
NtRp2832
(dp2833
g73
(dp2834
sg82
g2819
sg75
(lp2835
g68
(g69
g70
NtRp2836
(dp2837
g73
(dp2838
g81
I3
ssg82
g2832
sg75
(lp2839
S'<class wsgiref.util.FileWrapper at 0x7fbe082e6598>'
p2840
asbasbasbag68
(g84
g70
NtRp2841
(dp2842
g73
(dp2843
sg82
g2415
sg75
(lp2844
g68
(g89
g70
NtRp2845
(dp2846
g73
(dp2847
g93
g94
ssg82
g2841
sg75
(lp2848
S'wsgi.input'
p2849
asbag68
(g89
g70
NtRp2850
(dp2851
g73
(dp2852
g100
g101
ssg82
g2841
sg75
(lp2853
S':'
asbag68
(g89
g70
NtRp2854
(dp2855
g73
(dp2856
sg82
g2841
sg75
(lp2857
g68
(g69
g70
NtRp2858
(dp2859
g73
(dp2860
g81
I3
ssg82
g2854
sg75
(lp2861
S'<cStringIO.StringO object at 0x7fbdb34b2340>'
p2862
asbasbasbag68
(g84
g70
NtRp2863
(dp2864
g73
(dp2865
sg82
g2415
sg75
(lp2866
g68
(g89
g70
NtRp2867
(dp2868
g73
(dp2869
g93
g94
ssg82
g2863
sg75
(lp2870
S'wsgi.multiprocess'
p2871
asbag68
(g89
g70
NtRp2872
(dp2873
g73
(dp2874
g100
g101
ssg82
g2863
sg75
(lp2875
S':'
asbag68
(g89
g70
NtRp2876
(dp2877
g73
(dp2878
sg82
g2863
sg75
(lp2879
g68
(g69
g70
NtRp2880
(dp2881
g73
(dp2882
g81
I3
ssg82
g2876
sg75
(lp2883
g111
asbasbasbag68
(g84
g70
NtRp2884
(dp2885
g73
(dp2886
sg82
g2415
sg75
(lp2887
g68
(g89
g70
NtRp2888
(dp2889
g73
(dp2890
g93
g94
ssg82
g2884
sg75
(lp2891
S'wsgi.multithread'
p2892
asbag68
(g89
g70
NtRp2893
(dp2894
g73
(dp2895
g100
g101
ssg82
g2884
sg75
(lp2896
S':'
asbag68
(g89
g70
NtRp2897
(dp2898
g73
(dp2899
sg82
g2884
sg75
(lp2900
g68
(g69
g70
NtRp2901
(dp2902
g73
(dp2903
g81
I3
ssg82
g2897
sg75
(lp2904
g1666
asbasbasbag68
(g84
g70
NtRp2905
(dp2906
g73
(dp2907
sg82
g2415
sg75
(lp2908
g68
(g89
g70
NtRp2909
(dp2910
g73
(dp2911
g93
g94
ssg82
g2905
sg75
(lp2912
S'wsgi.run_once'
p2913
asbag68
(g89
g70
NtRp2914
(dp2915
g73
(dp2916
g100
g101
ssg82
g2905
sg75
(lp2917
S':'
asbag68
(g89
g70
NtRp2918
(dp2919
g73
(dp2920
sg82
g2905
sg75
(lp2921
g68
(g69
g70
NtRp2922
(dp2923
g73
(dp2924
g81
I3
ssg82
g2918
sg75
(lp2925
g111
asbasbasbag68
(g84
g70
NtRp2926
(dp2927
g73
(dp2928
sg82
g2415
sg75
(lp2929
g68
(g89
g70
NtRp2930
(dp2931
g73
(dp2932
g93
g94
ssg82
g2926
sg75
(lp2933
S'wsgi.url_scheme'
p2934
asbag68
(g89
g70
NtRp2935
(dp2936
g73
(dp2937
g100
g101
ssg82
g2926
sg75
(lp2938
S':'
asbag68
(g89
g70
NtRp2939
(dp2940
g73
(dp2941
sg82
g2926
sg75
(lp2942
g68
(g69
g70
NtRp2943
(dp2944
g73
(dp2945
g81
I3
ssg82
g2939
sg75
(lp2946
g1709
asbasbasbag68
(g84
g70
NtRp2947
(dp2948
g73
(dp2949
sg82
g2415
sg75
(lp2950
g68
(g89
g70
NtRp2951
(dp2952
g73
(dp2953
g93
g94
ssg82
g2947
sg75
(lp2954
S'wsgi.version'
p2955
asbag68
(g89
g70
NtRp2956
(dp2957
g73
(dp2958
g100
g101
ssg82
g2947
sg75
(lp2959
S':'
asbag68
(g89
g70
NtRp2960
(dp2961
g73
(dp2962
sg82
g2947
sg75
(lp2963
g68
(g69
g70
NtRp2964
(dp2965
g73
(dp2966
g81
I3
ssg82
g2960
sg75
(lp2967
S'1'
asbasbasbasbasbasbasbasbasbasbasbasbasbsS'frames'
p2968
(lp2969
(dp2970
S'file'
p2971
S'/usr/lib/pymodules/python2.7/gluon/restricted.py'
p2972
sS'dump'
p2973
(dp2974
S'code'
p2975
S'\'# coding: utf8\\n# try something like\\ndef index():...")\\n     \\n\\nresponse._vars=response._caller(index)\\n\''
p2976
sS'layer'
p2977
S"'/home/shubham/web2py/applications/Search_Engine/controllers/search.py'"
p2978
sS'global compile2'
p2979
S'<function compile2>'
p2980
sS'ccode'
p2981
S'undefined'
p2982
ssS'lnum'
p2983
I204
sS'lines'
p2984
(dp2985
I199
S"    environment['__name__'] = '__restricted__'"
p2986
sI200
S'    try:'
p2987
sI201
S'        if type(code) == types.CodeType:'
p2988
sI202
S'            ccode = code'
p2989
sI203
S'        else:'
p2990
sI204
S'            ccode = compile2(code,layer)'
p2991
sI205
S'        exec ccode in environment'
p2992
sI206
S'    except HTTP:'
p2993
sI207
S'        raise'
p2994
sI208
S'    except RestrictedError:'
p2995
ssS'call'
p2996
S'(code=\'# coding: utf8\\n# try something like\\ndef index():...")\\n     \\n\\nresponse._vars=response._caller(index)\\n\', environment={\'A\': <class \'gluon.html.A\'>, \'Auth\': <class \'gluon.tools.Auth\'>, \'B\': <class \'gluon.html.B\'>, \'BEAUTIFY\': <class \'gluon.html.BEAUTIFY\'>, \'BODY\': <class \'gluon.html.BODY\'>, \'BR\': <class \'gluon.html.BR\'>, \'BUTTON\': <class \'gluon.html.BUTTON\'>, \'CAT\': <class \'gluon.html.CAT\'>, \'CENTER\': <class \'gluon.html.CENTER\'>, \'CLEANUP\': <class \'gluon.validators.CLEANUP\'>, ...}, layer=\'/home/shubham/web2py/applications/Search_Engine/controllers/search.py\')'
p2997
sS'func'
p2998
S'restricted'
p2999
sa(dp3000
g2971
S'/usr/lib/pymodules/python2.7/gluon/restricted.py'
p3001
sg2973
(dp3002
S'builtincompile'
p3003
S'<built-in function compile>'
p3004
sS'code'
p3005
S'\'# coding: utf8\\n# try something like\\ndef index():...")\\n     \\n\\nresponse._vars=response._caller(index)\\n\''
p3006
sS'code.rstrip'
p3007
S'<built-in method rstrip of str object>'
p3008
sS').replace'
p3009
g2982
sS'layer'
p3010
S"'/home/shubham/web2py/applications/Search_Engine/controllers/search.py'"
p3011
ssg2983
I189
sg2984
(dp3012
I192
S'    """'
p3013
sI193
S'    runs code in environment and returns the output. if an exception occurs'
p3014
sI184
S''
sI185
S'def compile2(code,layer):'
p3015
sI186
S'    """'
p3016
sI187
S"    The +'\\n' is necessary else compile fails when code ends in a comment."
p3017
sI188
S'    """'
p3018
sI189
S"    return compile(code.rstrip().replace('\\r\\n','\\n')+'\\n', layer, 'exec')"
p3019
sI190
S''
sI191
S"def restricted(code, environment=None, layer='Unknown'):"
p3020
ssg2996
S'(code=\'# coding: utf8\\n# try something like\\ndef index():...")\\n     \\n\\nresponse._vars=response._caller(index)\\n\', layer=\'/home/shubham/web2py/applications/Search_Engine/controllers/search.py\')'
p3021
sg2998
S'compile2'
p3022
sasS'pyver'
p3023
S'Python 2.7.9: /usr/bin/python'
p3024
sS'session'
p3025
g68
(g69
g70
NtRp3026
(dp3027
g73
(dp3028
sg75
(lp3029
g68
(g77
g70
NtRp3030
(dp3031
g73
(dp3032
g81
I5
ssg82
Nsg75
(lp3033
sbasbsS'etype'
p3034
S"<type 'exceptions.SyntaxError'>"
p3035
sS'date'
p3036
S'Wed Sep  2 14:06:27 2015'
p3037
sS'response'
p3038
g68
(g69
g70
NtRp3039
(dp3040
g73
(dp3041
sg75
(lp3042
g68
(g77
g70
NtRp3043
(dp3044
g73
(dp3045
g81
I5
ssg82
Nsg75
(lp3046
g68
(g84
g70
NtRp3047
(dp3048
g73
(dp3049
sg82
g3043
sg75
(lp3050
g68
(g89
g70
NtRp3051
(dp3052
g73
(dp3053
g93
g94
ssg82
g3047
sg75
(lp3054
g166
asbag68
(g89
g70
NtRp3055
(dp3056
g73
(dp3057
g100
g101
ssg82
g3047
sg75
(lp3058
S':'
asbag68
(g89
g70
NtRp3059
(dp3060
g73
(dp3061
sg82
g3047
sg75
(lp3062
g68
(g69
g70
NtRp3063
(dp3064
g73
(dp3065
g81
I5
ssg82
g3059
sg75
(lp3066
S'<cStringIO.StringO object at 0x7fbdb34b2928>'
p3067
asbasbasbag68
(g84
g70
NtRp3068
(dp3069
g73
(dp3070
sg82
g3043
sg75
(lp3071
g68
(g89
g70
NtRp3072
(dp3073
g73
(dp3074
g93
g94
ssg82
g3068
sg75
(lp3075
g232
asbag68
(g89
g70
NtRp3076
(dp3077
g73
(dp3078
g100
g101
ssg82
g3068
sg75
(lp3079
S':'
asbag68
(g89
g70
NtRp3080
(dp3081
g73
(dp3082
sg82
g3068
sg75
(lp3083
g68
(g69
g70
NtRp3084
(dp3085
g73
(dp3086
g81
I5
ssg82
g3080
sg75
(lp3087
g68
(g77
g70
NtRp3088
(dp3089
g73
(dp3090
g81
I4
ssg82
Nsg75
(lp3091
g68
(g84
g70
NtRp3092
(dp3093
g73
(dp3094
sg82
g3088
sg75
(lp3095
g68
(g89
g70
NtRp3096
(dp3097
g73
(dp3098
g93
g94
ssg82
g3092
sg75
(lp3099
S'session_id_search_engine'
p3100
asbag68
(g89
g70
NtRp3101
(dp3102
g73
(dp3103
g100
g101
ssg82
g3092
sg75
(lp3104
S':'
asbag68
(g89
g70
NtRp3105
(dp3106
g73
(dp3107
sg82
g3092
sg75
(lp3108
g68
(g69
g70
NtRp3109
(dp3110
g73
(dp3111
g81
I4
ssg82
g3105
sg75
(lp3112
g68
(g77
g70
NtRp3113
(dp3114
g73
(dp3115
g81
I3
ssg82
Nsg75
(lp3116
g68
(g84
g70
NtRp3117
(dp3118
g73
(dp3119
sg82
g3113
sg75
(lp3120
g68
(g89
g70
NtRp3121
(dp3122
g73
(dp3123
g93
g94
ssg82
g3117
sg75
(lp3124
g282
asbag68
(g89
g70
NtRp3125
(dp3126
g73
(dp3127
g100
g101
ssg82
g3117
sg75
(lp3128
S':'
asbag68
(g89
g70
NtRp3129
(dp3130
g73
(dp3131
sg82
g3117
sg75
(lp3132
g68
(g69
g70
NtRp3133
(dp3134
g73
(dp3135
g81
I3
ssg82
g3129
sg75
(lp3136
S''
asbasbasbag68
(g84
g70
NtRp3137
(dp3138
g73
(dp3139
sg82
g3113
sg75
(lp3140
g68
(g89
g70
NtRp3141
(dp3142
g73
(dp3143
g93
g94
ssg82
g3137
sg75
(lp3144
g303
asbag68
(g89
g70
NtRp3145
(dp3146
g73
(dp3147
g100
g101
ssg82
g3137
sg75
(lp3148
S':'
asbag68
(g89
g70
NtRp3149
(dp3150
g73
(dp3151
sg82
g3137
sg75
(lp3152
g68
(g69
g70
NtRp3153
(dp3154
g73
(dp3155
g81
I3
ssg82
g3149
sg75
(lp3156
S''
asbasbasbag68
(g84
g70
NtRp3157
(dp3158
g73
(dp3159
sg82
g3113
sg75
(lp3160
g68
(g89
g70
NtRp3161
(dp3162
g73
(dp3163
g93
g94
ssg82
g3157
sg75
(lp3164
g324
asbag68
(g89
g70
NtRp3165
(dp3166
g73
(dp3167
g100
g101
ssg82
g3157
sg75
(lp3168
S':'
asbag68
(g89
g70
NtRp3169
(dp3170
g73
(dp3171
sg82
g3157
sg75
(lp3172
g68
(g69
g70
NtRp3173
(dp3174
g73
(dp3175
g81
I3
ssg82
g3169
sg75
(lp3176
S''
asbasbasbag68
(g84
g70
NtRp3177
(dp3178
g73
(dp3179
sg82
g3113
sg75
(lp3180
g68
(g89
g70
NtRp3181
(dp3182
g73
(dp3183
g93
g94
ssg82
g3177
sg75
(lp3184
g345
asbag68
(g89
g70
NtRp3185
(dp3186
g73
(dp3187
g100
g101
ssg82
g3177
sg75
(lp3188
S':'
asbag68
(g89
g70
NtRp3189
(dp3190
g73
(dp3191
sg82
g3177
sg75
(lp3192
g68
(g69
g70
NtRp3193
(dp3194
g73
(dp3195
g81
I3
ssg82
g3189
sg75
(lp3196
S''
asbasbasbag68
(g84
g70
NtRp3197
(dp3198
g73
(dp3199
sg82
g3113
sg75
(lp3200
g68
(g89
g70
NtRp3201
(dp3202
g73
(dp3203
g93
g94
ssg82
g3197
sg75
(lp3204
g366
asbag68
(g89
g70
NtRp3205
(dp3206
g73
(dp3207
g100
g101
ssg82
g3197
sg75
(lp3208
S':'
asbag68
(g89
g70
NtRp3209
(dp3210
g73
(dp3211
sg82
g3197
sg75
(lp3212
g68
(g69
g70
NtRp3213
(dp3214
g73
(dp3215
g81
I3
ssg82
g3209
sg75
(lp3216
S''
asbasbasbag68
(g84
g70
NtRp3217
(dp3218
g73
(dp3219
sg82
g3113
sg75
(lp3220
g68
(g89
g70
NtRp3221
(dp3222
g73
(dp3223
g93
g94
ssg82
g3217
sg75
(lp3224
g387
asbag68
(g89
g70
NtRp3225
(dp3226
g73
(dp3227
g100
g101
ssg82
g3217
sg75
(lp3228
S':'
asbag68
(g89
g70
NtRp3229
(dp3230
g73
(dp3231
sg82
g3217
sg75
(lp3232
g68
(g69
g70
NtRp3233
(dp3234
g73
(dp3235
g81
I3
ssg82
g3229
sg75
(lp3236
S'/'
asbasbasbag68
(g84
g70
NtRp3237
(dp3238
g73
(dp3239
sg82
g3113
sg75
(lp3240
g68
(g89
g70
NtRp3241
(dp3242
g73
(dp3243
g93
g94
ssg82
g3237
sg75
(lp3244
g408
asbag68
(g89
g70
NtRp3245
(dp3246
g73
(dp3247
g100
g101
ssg82
g3237
sg75
(lp3248
S':'
asbag68
(g89
g70
NtRp3249
(dp3250
g73
(dp3251
sg82
g3237
sg75
(lp3252
g68
(g69
g70
NtRp3253
(dp3254
g73
(dp3255
g81
I3
ssg82
g3249
sg75
(lp3256
S''
asbasbasbag68
(g84
g70
NtRp3257
(dp3258
g73
(dp3259
sg82
g3113
sg75
(lp3260
g68
(g89
g70
NtRp3261
(dp3262
g73
(dp3263
g93
g94
ssg82
g3257
sg75
(lp3264
g429
asbag68
(g89
g70
NtRp3265
(dp3266
g73
(dp3267
g100
g101
ssg82
g3257
sg75
(lp3268
S':'
asbag68
(g89
g70
NtRp3269
(dp3270
g73
(dp3271
sg82
g3257
sg75
(lp3272
g68
(g69
g70
NtRp3273
(dp3274
g73
(dp3275
g81
I3
ssg82
g3269
sg75
(lp3276
S''
asbasbasbasbasbasbasbasbasbasbasbag68
(g84
g70
NtRp3277
(dp3278
g73
(dp3279
sg82
g3043
sg75
(lp3280
g68
(g89
g70
NtRp3281
(dp3282
g73
(dp3283
g93
g94
ssg82
g3277
sg75
(lp3284
S'delimiters'
p3285
asbag68
(g89
g70
NtRp3286
(dp3287
g73
(dp3288
g100
g101
ssg82
g3277
sg75
(lp3289
S':'
asbag68
(g89
g70
NtRp3290
(dp3291
g73
(dp3292
sg82
g3277
sg75
(lp3293
g68
(g69
g70
NtRp3294
(dp3295
g73
(dp3296
g81
I5
ssg82
g3290
sg75
(lp3297
g68
(g77
g70
NtRp3298
(dp3299
g73
(dp3300
g81
I4
ssg82
Nsg75
(lp3301
g68
(g84
g70
NtRp3302
(dp3303
g73
(dp3304
sg82
g3298
sg75
(lp3305
g68
(g89
g70
NtRp3306
(dp3307
g73
(dp3308
sg82
g3302
sg75
(lp3309
g68
(g69
g70
NtRp3310
(dp3311
g73
(dp3312
g81
I4
ssg82
g3306
sg75
(lp3313
S'{{'
p3314
asbasbasbag68
(g84
g70
NtRp3315
(dp3316
g73
(dp3317
sg82
g3298
sg75
(lp3318
g68
(g89
g70
NtRp3319
(dp3320
g73
(dp3321
sg82
g3315
sg75
(lp3322
g68
(g69
g70
NtRp3323
(dp3324
g73
(dp3325
g81
I4
ssg82
g3319
sg75
(lp3326
S'}}'
p3327
asbasbasbasbasbasbasbag68
(g84
g70
NtRp3328
(dp3329
g73
(dp3330
sg82
g3043
sg75
(lp3331
g68
(g89
g70
NtRp3332
(dp3333
g73
(dp3334
g93
g94
ssg82
g3328
sg75
(lp3335
S'files'
p3336
asbag68
(g89
g70
NtRp3337
(dp3338
g73
(dp3339
g100
g101
ssg82
g3328
sg75
(lp3340
S':'
asbag68
(g89
g70
NtRp3341
(dp3342
g73
(dp3343
sg82
g3328
sg75
(lp3344
g68
(g69
g70
NtRp3345
(dp3346
g73
(dp3347
g81
I5
ssg82
g3341
sg75
(lp3348
g68
(g77
g70
NtRp3349
(dp3350
g73
(dp3351
g81
I4
ssg82
Nsg75
(lp3352
sbasbasbasbag68
(g84
g70
NtRp3353
(dp3354
g73
(dp3355
sg82
g3043
sg75
(lp3356
g68
(g89
g70
NtRp3357
(dp3358
g73
(dp3359
g93
g94
ssg82
g3353
sg75
(lp3360
S'flash'
p3361
asbag68
(g89
g70
NtRp3362
(dp3363
g73
(dp3364
g100
g101
ssg82
g3353
sg75
(lp3365
S':'
asbag68
(g89
g70
NtRp3366
(dp3367
g73
(dp3368
sg82
g3353
sg75
(lp3369
g68
(g69
g70
NtRp3370
(dp3371
g73
(dp3372
g81
I5
ssg82
g3366
sg75
(lp3373
S''
asbasbasbag68
(g84
g70
NtRp3374
(dp3375
g73
(dp3376
sg82
g3043
sg75
(lp3377
g68
(g89
g70
NtRp3378
(dp3379
g73
(dp3380
g93
g94
ssg82
g3374
sg75
(lp3381
S'generic_patterns'
p3382
asbag68
(g89
g70
NtRp3383
(dp3384
g73
(dp3385
g100
g101
ssg82
g3374
sg75
(lp3386
S':'
asbag68
(g89
g70
NtRp3387
(dp3388
g73
(dp3389
sg82
g3374
sg75
(lp3390
g68
(g69
g70
NtRp3391
(dp3392
g73
(dp3393
g81
I5
ssg82
g3387
sg75
(lp3394
g68
(g77
g70
NtRp3395
(dp3396
g73
(dp3397
g81
I4
ssg82
Nsg75
(lp3398
g68
(g84
g70
NtRp3399
(dp3400
g73
(dp3401
sg82
g3395
sg75
(lp3402
g68
(g89
g70
NtRp3403
(dp3404
g73
(dp3405
sg82
g3399
sg75
(lp3406
g68
(g69
g70
NtRp3407
(dp3408
g73
(dp3409
g81
I4
ssg82
g3403
sg75
(lp3410
S'*'
asbasbasbasbasbasbasbag68
(g84
g70
NtRp3411
(dp3412
g73
(dp3413
sg82
g3043
sg75
(lp3414
g68
(g89
g70
NtRp3415
(dp3416
g73
(dp3417
g93
g94
ssg82
g3411
sg75
(lp3418
S'headers'
p3419
asbag68
(g89
g70
NtRp3420
(dp3421
g73
(dp3422
g100
g101
ssg82
g3411
sg75
(lp3423
S':'
asbag68
(g89
g70
NtRp3424
(dp3425
g73
(dp3426
sg82
g3411
sg75
(lp3427
g68
(g69
g70
NtRp3428
(dp3429
g73
(dp3430
g81
I5
ssg82
g3424
sg75
(lp3431
g68
(g77
g70
NtRp3432
(dp3433
g73
(dp3434
g81
I4
ssg82
Nsg75
(lp3435
g68
(g84
g70
NtRp3436
(dp3437
g73
(dp3438
sg82
g3432
sg75
(lp3439
g68
(g89
g70
NtRp3440
(dp3441
g73
(dp3442
g93
g94
ssg82
g3436
sg75
(lp3443
S'Cache-Control'
p3444
asbag68
(g89
g70
NtRp3445
(dp3446
g73
(dp3447
g100
g101
ssg82
g3436
sg75
(lp3448
S':'
asbag68
(g89
g70
NtRp3449
(dp3450
g73
(dp3451
sg82
g3436
sg75
(lp3452
g68
(g69
g70
NtRp3453
(dp3454
g73
(dp3455
g81
I4
ssg82
g3449
sg75
(lp3456
S'no-store, no-cache, must-revalidate, post-check=0, pre-check=0'
p3457
asbasbasbag68
(g84
g70
NtRp3458
(dp3459
g73
(dp3460
sg82
g3432
sg75
(lp3461
g68
(g89
g70
NtRp3462
(dp3463
g73
(dp3464
g93
g94
ssg82
g3458
sg75
(lp3465
S'Content-Type'
p3466
asbag68
(g89
g70
NtRp3467
(dp3468
g73
(dp3469
g100
g101
ssg82
g3458
sg75
(lp3470
S':'
asbag68
(g89
g70
NtRp3471
(dp3472
g73
(dp3473
sg82
g3458
sg75
(lp3474
g68
(g69
g70
NtRp3475
(dp3476
g73
(dp3477
g81
I4
ssg82
g3471
sg75
(lp3478
S'text/html; charset=utf-8'
p3479
asbasbasbag68
(g84
g70
NtRp3480
(dp3481
g73
(dp3482
sg82
g3432
sg75
(lp3483
g68
(g89
g70
NtRp3484
(dp3485
g73
(dp3486
g93
g94
ssg82
g3480
sg75
(lp3487
S'Expires'
p3488
asbag68
(g89
g70
NtRp3489
(dp3490
g73
(dp3491
g100
g101
ssg82
g3480
sg75
(lp3492
S':'
asbag68
(g89
g70
NtRp3493
(dp3494
g73
(dp3495
sg82
g3480
sg75
(lp3496
g68
(g69
g70
NtRp3497
(dp3498
g73
(dp3499
g81
I4
ssg82
g3493
sg75
(lp3500
S'Wed, 02 Sep 2015 08:36:27 GMT'
p3501
asbasbasbag68
(g84
g70
NtRp3502
(dp3503
g73
(dp3504
sg82
g3432
sg75
(lp3505
g68
(g89
g70
NtRp3506
(dp3507
g73
(dp3508
g93
g94
ssg82
g3502
sg75
(lp3509
S'Pragma'
p3510
asbag68
(g89
g70
NtRp3511
(dp3512
g73
(dp3513
g100
g101
ssg82
g3502
sg75
(lp3514
S':'
asbag68
(g89
g70
NtRp3515
(dp3516
g73
(dp3517
sg82
g3502
sg75
(lp3518
g68
(g69
g70
NtRp3519
(dp3520
g73
(dp3521
g81
I4
ssg82
g3515
sg75
(lp3522
S'no-cache'
p3523
asbasbasbag68
(g84
g70
NtRp3524
(dp3525
g73
(dp3526
sg82
g3432
sg75
(lp3527
g68
(g89
g70
NtRp3528
(dp3529
g73
(dp3530
g93
g94
ssg82
g3524
sg75
(lp3531
S'X-Powered-By'
p3532
asbag68
(g89
g70
NtRp3533
(dp3534
g73
(dp3535
g100
g101
ssg82
g3524
sg75
(lp3536
S':'
asbag68
(g89
g70
NtRp3537
(dp3538
g73
(dp3539
sg82
g3524
sg75
(lp3540
g68
(g69
g70
NtRp3541
(dp3542
g73
(dp3543
g81
I4
ssg82
g3537
sg75
(lp3544
S'web2py'
p3545
asbasbasbasbasbasbasbag68
(g84
g70
NtRp3546
(dp3547
g73
(dp3548
sg82
g3043
sg75
(lp3549
g68
(g89
g70
NtRp3550
(dp3551
g73
(dp3552
g93
g94
ssg82
g3546
sg75
(lp3553
S'menu'
p3554
asbag68
(g89
g70
NtRp3555
(dp3556
g73
(dp3557
g100
g101
ssg82
g3546
sg75
(lp3558
S':'
asbag68
(g89
g70
NtRp3559
(dp3560
g73
(dp3561
sg82
g3546
sg75
(lp3562
g68
(g69
g70
NtRp3563
(dp3564
g73
(dp3565
g81
I5
ssg82
g3559
sg75
(lp3566
g68
(g77
g70
NtRp3567
(dp3568
g73
(dp3569
g81
I4
ssg82
Nsg75
(lp3570
g68
(g84
g70
NtRp3571
(dp3572
g73
(dp3573
sg82
g3567
sg75
(lp3574
g68
(g89
g70
NtRp3575
(dp3576
g73
(dp3577
sg82
g3571
sg75
(lp3578
g68
(g69
g70
NtRp3579
(dp3580
g73
(dp3581
g81
I4
ssg82
g3575
sg75
(lp3582
g68
(g77
g70
NtRp3583
(dp3584
g73
(dp3585
g81
I3
ssg82
Nsg75
(lp3586
g68
(g84
g70
NtRp3587
(dp3588
g73
(dp3589
sg82
g3583
sg75
(lp3590
g68
(g89
g70
NtRp3591
(dp3592
g73
(dp3593
sg82
g3587
sg75
(lp3594
g68
(g69
g70
NtRp3595
(dp3596
g73
(dp3597
g81
I3
ssg82
g3591
sg75
(lp3598
cgluon.languages
lazyT_unpickle
p3599
(S't\x04\x00\x00\x00Home'
tRp3600
asbasbasbag68
(g84
g70
NtRp3601
(dp3602
g73
(dp3603
sg82
g3583
sg75
(lp3604
g68
(g89
g70
NtRp3605
(dp3606
g73
(dp3607
sg82
g3601
sg75
(lp3608
g68
(g69
g70
NtRp3609
(dp3610
g73
(dp3611
g81
I3
ssg82
g3605
sg75
(lp3612
g111
asbasbasbag68
(g84
g70
NtRp3613
(dp3614
g73
(dp3615
sg82
g3583
sg75
(lp3616
g68
(g89
g70
NtRp3617
(dp3618
g73
(dp3619
sg82
g3613
sg75
(lp3620
g68
(g69
g70
NtRp3621
(dp3622
g73
(dp3623
g81
I3
ssg82
g3617
sg75
(lp3624
S'/Search_Engine/default/index'
p3625
asbasbasbag68
(g84
g70
NtRp3626
(dp3627
g73
(dp3628
sg82
g3583
sg75
(lp3629
g68
(g89
g70
NtRp3630
(dp3631
g73
(dp3632
sg82
g3626
sg75
(lp3633
g68
(g69
g70
NtRp3634
(dp3635
g73
(dp3636
g81
I3
ssg82
g3630
sg75
(lp3637
g68
(g77
g70
NtRp3638
(dp3639
g73
(dp3640
g81
I2
ssg82
Nsg75
(lp3641
sbasbasbasbasbasbasbasbag68
(g84
g70
NtRp3642
(dp3643
g73
(dp3644
sg82
g3567
sg75
(lp3645
g68
(g89
g70
NtRp3646
(dp3647
g73
(dp3648
sg82
g3642
sg75
(lp3649
g68
(g69
g70
NtRp3650
(dp3651
g73
(dp3652
g81
I4
ssg82
g3646
sg75
(lp3653
g68
(g77
g70
NtRp3654
(dp3655
g73
(dp3656
g81
I3
ssg82
Nsg75
(lp3657
g68
(g84
g70
NtRp3658
(dp3659
g73
(dp3660
sg82
g3654
sg75
(lp3661
g68
(g89
g70
NtRp3662
(dp3663
g73
(dp3664
sg82
g3658
sg75
(lp3665
g68
(g69
g70
NtRp3666
(dp3667
g73
(dp3668
g81
I3
ssg82
g3662
sg75
(lp3669
g68
(cgluon.html
SPAN
p3670
g70
NtRp3671
(dp3672
g73
(dp3673
g93
S'color:yellow'
p3674
ssg82
Nsg75
(lp3675
g3545
asbasbasbasbag68
(g84
g70
NtRp3676
(dp3677
g73
(dp3678
sg82
g3654
sg75
(lp3679
g68
(g89
g70
NtRp3680
(dp3681
g73
(dp3682
sg82
g3676
sg75
(lp3683
g68
(g69
g70
NtRp3684
(dp3685
g73
(dp3686
g81
I3
ssg82
g3680
sg75
(lp3687
g111
asbasbasbag68
(g84
g70
NtRp3688
(dp3689
g73
(dp3690
sg82
g3654
sg75
(lp3691
g68
(g89
g70
NtRp3692
(dp3693
g73
(dp3694
sg82
g3688
sg75
(lp3695
g68
(g69
g70
NtRp3696
(dp3697
g73
(dp3698
g81
I3
ssg82
g3692
sg75
(lp3699
S'None'
p3700
asbasbasbag68
(g84
g70
NtRp3701
(dp3702
g73
(dp3703
sg82
g3654
sg75
(lp3704
g68
(g89
g70
NtRp3705
(dp3706
g73
(dp3707
sg82
g3701
sg75
(lp3708
g68
(g69
g70
NtRp3709
(dp3710
g73
(dp3711
g81
I3
ssg82
g3705
sg75
(lp3712
g68
(g77
g70
NtRp3713
(dp3714
g73
(dp3715
g81
I2
ssg82
Nsg75
(lp3716
g68
(g84
g70
NtRp3717
(dp3718
g73
(dp3719
sg82
g3713
sg75
(lp3720
g68
(g89
g70
NtRp3721
(dp3722
g73
(dp3723
sg82
g3717
sg75
(lp3724
g68
(g69
g70
NtRp3725
(dp3726
g73
(dp3727
g81
I2
ssg82
g3721
sg75
(lp3728
g68
(g77
g70
NtRp3729
(dp3730
g73
(dp3731
g81
I1
ssg82
Nsg75
(lp3732
g68
(g84
g70
NtRp3733
(dp3734
g73
(dp3735
sg82
g3729
sg75
(lp3736
g68
(g89
g70
NtRp3737
(dp3738
g73
(dp3739
sg82
g3733
sg75
(lp3740
g68
(g69
g70
NtRp3741
(dp3742
g73
(dp3743
g81
I1
ssg82
g3737
sg75
(lp3744
g3599
(S's\x08\x00\x00\x00My Sites'
tRp3745
asbasbasbag68
(g84
g70
NtRp3746
(dp3747
g73
(dp3748
sg82
g3729
sg75
(lp3749
g68
(g89
g70
NtRp3750
(dp3751
g73
(dp3752
sg82
g3746
sg75
(lp3753
g68
(g69
g70
NtRp3754
(dp3755
g73
(dp3756
g81
I1
ssg82
g3750
sg75
(lp3757
I00
asbasbasbag68
(g84
g70
NtRp3758
(dp3759
g73
(dp3760
sg82
g3729
sg75
(lp3761
g68
(g89
g70
NtRp3762
(dp3763
g73
(dp3764
sg82
g3758
sg75
(lp3765
g68
(g69
g70
NtRp3766
(dp3767
g73
(dp3768
g81
I1
ssg82
g3762
sg75
(lp3769
S'/admin/default/site'
p3770
asbasbasbasbasbasbasbag68
(g84
g70
NtRp3771
(dp3772
g73
(dp3773
sg82
g3713
sg75
(lp3774
g68
(g89
g70
NtRp3775
(dp3776
g73
(dp3777
sg82
g3771
sg75
(lp3778
g68
(g69
g70
NtRp3779
(dp3780
g73
(dp3781
g81
I2
ssg82
g3775
sg75
(lp3782
g68
(g77
g70
NtRp3783
(dp3784
g73
(dp3785
g81
I1
ssg82
Nsg75
(lp3786
g68
(g84
g70
NtRp3787
(dp3788
g73
(dp3789
sg82
g3783
sg75
(lp3790
g68
(g89
g70
NtRp3791
(dp3792
g73
(dp3793
sg82
g3787
sg75
(lp3794
g68
(g69
g70
NtRp3795
(dp3796
g73
(dp3797
g81
I1
ssg82
g3791
sg75
(lp3798
g3599
(S's\x08\x00\x00\x00This App'
tRp3799
asbasbasbag68
(g84
g70
NtRp3800
(dp3801
g73
(dp3802
sg82
g3783
sg75
(lp3803
g68
(g89
g70
NtRp3804
(dp3805
g73
(dp3806
sg82
g3800
sg75
(lp3807
g68
(g69
g70
NtRp3808
(dp3809
g73
(dp3810
g81
I1
ssg82
g3804
sg75
(lp3811
I00
asbasbasbag68
(g84
g70
NtRp3812
(dp3813
g73
(dp3814
sg82
g3783
sg75
(lp3815
g68
(g89
g70
NtRp3816
(dp3817
g73
(dp3818
sg82
g3812
sg75
(lp3819
g68
(g69
g70
NtRp3820
(dp3821
g73
(dp3822
g81
I1
ssg82
g3816
sg75
(lp3823
S'/admin/default/design/Search_Engine'
p3824
asbasbasbag68
(g84
g70
NtRp3825
(dp3826
g73
(dp3827
sg82
g3783
sg75
(lp3828
g68
(g89
g70
NtRp3829
(dp3830
g73
(dp3831
sg82
g3825
sg75
(lp3832
g68
(g69
g70
NtRp3833
(dp3834
g73
(dp3835
g81
I1
ssg82
g3829
sg75
(lp3836
(lp3837
(g3599
(S't\n\x00\x00\x00Controller'
tRp3838
I00
S'/admin/default/edit/Search_Engine/controllers/search.py'
tp3839
a(g3599
(S't\x04\x00\x00\x00View'
tRp3840
I00
S'/admin/default/edit/Search_Engine/views/search/index.html'
tp3841
a(g3599
(S't\x06\x00\x00\x00Layout'
tRp3842
I00
S'/admin/default/edit/Search_Engine/views/layout.html'
tp3843
a(g3599
(S't\n\x00\x00\x00Stylesheet'
tRp3844
I00
S'/admin/default/edit/Search_Engine/static/css/web2py.css'
tp3845
a(g3599
(S's\x08\x00\x00\x00DB Model'
tRp3846
I00
S'/admin/default/edit/Search_Engine/models/db.py'
tp3847
a(g3599
(S's\n\x00\x00\x00Menu Model'
tRp3848
I00
S'/admin/default/edit/Search_Engine/models/menu.py'
tp3849
a(g3599
(S't\x08\x00\x00\x00Database'
tRp3850
I00
S'/Search_Engine/appadmin/index'
tp3851
a(g3599
(S't\x06\x00\x00\x00Errors'
tRp3852
I00
S'/admin/default/errors/Search_Engine'
tp3853
a(g3599
(S't\x05\x00\x00\x00About'
tRp3854
I00
S'/admin/default/about/Search_Engine'
tp3855
aasbasbasbasbasbasbasbag68
(g84
g70
NtRp3856
(dp3857
g73
(dp3858
sg82
g3713
sg75
(lp3859
g68
(g89
g70
NtRp3860
(dp3861
g73
(dp3862
sg82
g3856
sg75
(lp3863
g68
(g69
g70
NtRp3864
(dp3865
g73
(dp3866
g81
I2
ssg82
g3860
sg75
(lp3867
g68
(g77
g70
NtRp3868
(dp3869
g73
(dp3870
g81
I1
ssg82
Nsg75
(lp3871
g68
(g84
g70
NtRp3872
(dp3873
g73
(dp3874
sg82
g3868
sg75
(lp3875
g68
(g89
g70
NtRp3876
(dp3877
g73
(dp3878
sg82
g3872
sg75
(lp3879
g68
(g69
g70
NtRp3880
(dp3881
g73
(dp3882
g81
I1
ssg82
g3876
sg75
(lp3883
S'web2py.com'
p3884
asbasbasbag68
(g84
g70
NtRp3885
(dp3886
g73
(dp3887
sg82
g3868
sg75
(lp3888
g68
(g89
g70
NtRp3889
(dp3890
g73
(dp3891
sg82
g3885
sg75
(lp3892
g68
(g69
g70
NtRp3893
(dp3894
g73
(dp3895
g81
I1
ssg82
g3889
sg75
(lp3896
I00
asbasbasbag68
(g84
g70
NtRp3897
(dp3898
g73
(dp3899
sg82
g3868
sg75
(lp3900
g68
(g89
g70
NtRp3901
(dp3902
g73
(dp3903
sg82
g3897
sg75
(lp3904
g68
(g69
g70
NtRp3905
(dp3906
g73
(dp3907
g81
I1
ssg82
g3901
sg75
(lp3908
S'http://www.web2py.com'
p3909
asbasbasbag68
(g84
g70
NtRp3910
(dp3911
g73
(dp3912
sg82
g3868
sg75
(lp3913
g68
(g89
g70
NtRp3914
(dp3915
g73
(dp3916
sg82
g3910
sg75
(lp3917
g68
(g69
g70
NtRp3918
(dp3919
g73
(dp3920
g81
I1
ssg82
g3914
sg75
(lp3921
(lp3922
(g3599
(S't\x08\x00\x00\x00Download'
tRp3923
I00
S'http://www.web2py.com/examples/default/download'
p3924
tp3925
a(g3599
(S't\x07\x00\x00\x00Support'
tRp3926
I00
S'http://www.web2py.com/examples/default/support'
p3927
tp3928
a(g3599
(S't\x04\x00\x00\x00Demo'
tRp3929
I00
S'http://web2py.com/demo_admin'
p3930
tp3931
a(g3599
(S's\x0e\x00\x00\x00Quick Examples'
tRp3932
I00
S'http://web2py.com/examples/default/examples'
p3933
tp3934
a(g3599
(S't\x03\x00\x00\x00FAQ'
tRp3935
I00
S'http://web2py.com/AlterEgo'
p3936
tp3937
a(g3599
(S't\x06\x00\x00\x00Videos'
tRp3938
I00
S'http://www.web2py.com/examples/default/videos/'
p3939
tp3940
a(g3599
(S's\x11\x00\x00\x00Free Applications'
tRp3941
I00
S'http://web2py.com/appliances'
p3942
tp3943
a(g3599
(S't\x07\x00\x00\x00Plugins'
tRp3944
I00
S'http://web2py.com/plugins'
p3945
tp3946
a(g3599
(S't\x07\x00\x00\x00Layouts'
tRp3947
I00
S'http://web2py.com/layouts'
p3948
tp3949
a(g3599
(S't\x07\x00\x00\x00Recipes'
tRp3950
I00
S'http://web2pyslices.com/'
p3951
tp3952
a(g3599
(S't\x08\x00\x00\x00Semantic'
tRp3953
I00
S'http://web2py.com/semantic'
p3954
tp3955
aasbasbasbasbasbasbasbag68
(g84
g70
NtRp3956
(dp3957
g73
(dp3958
sg82
g3713
sg75
(lp3959
g68
(g89
g70
NtRp3960
(dp3961
g73
(dp3962
sg82
g3956
sg75
(lp3963
g68
(g69
g70
NtRp3964
(dp3965
g73
(dp3966
g81
I2
ssg82
g3960
sg75
(lp3967
g68
(g77
g70
NtRp3968
(dp3969
g73
(dp3970
g81
I1
ssg82
Nsg75
(lp3971
g68
(g84
g70
NtRp3972
(dp3973
g73
(dp3974
sg82
g3968
sg75
(lp3975
g68
(g89
g70
NtRp3976
(dp3977
g73
(dp3978
sg82
g3972
sg75
(lp3979
g68
(g69
g70
NtRp3980
(dp3981
g73
(dp3982
g81
I1
ssg82
g3976
sg75
(lp3983
g3599
(S't\r\x00\x00\x00Documentation'
tRp3984
asbasbasbag68
(g84
g70
NtRp3985
(dp3986
g73
(dp3987
sg82
g3968
sg75
(lp3988
g68
(g89
g70
NtRp3989
(dp3990
g73
(dp3991
sg82
g3985
sg75
(lp3992
g68
(g69
g70
NtRp3993
(dp3994
g73
(dp3995
g81
I1
ssg82
g3989
sg75
(lp3996
I00
asbasbasbag68
(g84
g70
NtRp3997
(dp3998
g73
(dp3999
sg82
g3968
sg75
(lp4000
g68
(g89
g70
NtRp4001
(dp4002
g73
(dp4003
sg82
g3997
sg75
(lp4004
g68
(g69
g70
NtRp4005
(dp4006
g73
(dp4007
g81
I1
ssg82
g4001
sg75
(lp4008
S'http://www.web2py.com/book'
p4009
asbasbasbag68
(g84
g70
NtRp4010
(dp4011
g73
(dp4012
sg82
g3968
sg75
(lp4013
g68
(g89
g70
NtRp4014
(dp4015
g73
(dp4016
sg82
g4010
sg75
(lp4017
g68
(g69
g70
NtRp4018
(dp4019
g73
(dp4020
g81
I1
ssg82
g4014
sg75
(lp4021
(lp4022
(g3599
(S't\x07\x00\x00\x00Preface'
tRp4023
I00
S'http://www.web2py.com/book/default/chapter/00'
p4024
tp4025
a(g3599
(S't\x0c\x00\x00\x00Introduction'
tRp4026
I00
S'http://www.web2py.com/book/default/chapter/01'
p4027
tp4028
a(g3599
(S't\x06\x00\x00\x00Python'
tRp4029
I00
S'http://www.web2py.com/book/default/chapter/02'
p4030
tp4031
a(g3599
(S't\x08\x00\x00\x00Overview'
tRp4032
I00
S'http://www.web2py.com/book/default/chapter/03'
p4033
tp4034
a(g3599
(S's\x08\x00\x00\x00The Core'
tRp4035
I00
S'http://www.web2py.com/book/default/chapter/04'
p4036
tp4037
a(g3599
(S's\t\x00\x00\x00The Views'
tRp4038
I00
S'http://www.web2py.com/book/default/chapter/05'
p4039
tp4040
a(g3599
(S't\x08\x00\x00\x00Database'
tRp4041
I00
S'http://www.web2py.com/book/default/chapter/06'
p4042
tp4043
a(g3599
(S's\x14\x00\x00\x00Forms and Validators'
tRp4044
I00
S'http://www.web2py.com/book/default/chapter/07'
p4045
tp4046
a(g3599
(S's\r\x00\x00\x00Email and SMS'
tRp4047
I00
S'http://www.web2py.com/book/default/chapter/08'
p4048
tp4049
a(g3599
(S's\x0e\x00\x00\x00Access Control'
tRp4050
I00
S'http://www.web2py.com/book/default/chapter/09'
p4051
tp4052
a(g3599
(S't\x08\x00\x00\x00Services'
tRp4053
I00
S'http://www.web2py.com/book/default/chapter/10'
p4054
tp4055
a(g3599
(S's\x0c\x00\x00\x00Ajax Recipes'
tRp4056
I00
S'http://www.web2py.com/book/default/chapter/11'
p4057
tp4058
a(g3599
(S's\x16\x00\x00\x00Components and Plugins'
tRp4059
I00
S'http://www.web2py.com/book/default/chapter/12'
p4060
tp4061
a(g3599
(S's\x12\x00\x00\x00Deployment Recipes'
tRp4062
I00
S'http://www.web2py.com/book/default/chapter/13'
p4063
tp4064
a(g3599
(S's\r\x00\x00\x00Other Recipes'
tRp4065
I00
S'http://www.web2py.com/book/default/chapter/14'
p4066
tp4067
a(g3599
(S's\r\x00\x00\x00Buy this book'
tRp4068
I00
S'http://stores.lulu.com/web2py'
p4069
tp4070
aasbasbasbasbasbasbasbag68
(g84
g70
NtRp4071
(dp4072
g73
(dp4073
sg82
g3713
sg75
(lp4074
g68
(g89
g70
NtRp4075
(dp4076
g73
(dp4077
sg82
g4071
sg75
(lp4078
g68
(g69
g70
NtRp4079
(dp4080
g73
(dp4081
g81
I2
ssg82
g4075
sg75
(lp4082
g68
(g77
g70
NtRp4083
(dp4084
g73
(dp4085
g81
I1
ssg82
Nsg75
(lp4086
g68
(g84
g70
NtRp4087
(dp4088
g73
(dp4089
sg82
g4083
sg75
(lp4090
g68
(g89
g70
NtRp4091
(dp4092
g73
(dp4093
sg82
g4087
sg75
(lp4094
g68
(g69
g70
NtRp4095
(dp4096
g73
(dp4097
g81
I1
ssg82
g4091
sg75
(lp4098
g3599
(S't\t\x00\x00\x00Community'
tRp4099
asbasbasbag68
(g84
g70
NtRp4100
(dp4101
g73
(dp4102
sg82
g4083
sg75
(lp4103
g68
(g89
g70
NtRp4104
(dp4105
g73
(dp4106
sg82
g4100
sg75
(lp4107
g68
(g69
g70
NtRp4108
(dp4109
g73
(dp4110
g81
I1
ssg82
g4104
sg75
(lp4111
I00
asbasbasbag68
(g84
g70
NtRp4112
(dp4113
g73
(dp4114
sg82
g4083
sg75
(lp4115
g68
(g89
g70
NtRp4116
(dp4117
g73
(dp4118
sg82
g4112
sg75
(lp4119
g68
(g69
g70
NtRp4120
(dp4121
g73
(dp4122
g81
I1
ssg82
g4116
sg75
(lp4123
Nasbasbasbag68
(g84
g70
NtRp4124
(dp4125
g73
(dp4126
sg82
g4083
sg75
(lp4127
g68
(g89
g70
NtRp4128
(dp4129
g73
(dp4130
sg82
g4124
sg75
(lp4131
g68
(g69
g70
NtRp4132
(dp4133
g73
(dp4134
g81
I1
ssg82
g4128
sg75
(lp4135
(lp4136
(g3599
(S't\x06\x00\x00\x00Groups'
tRp4137
I00
S'http://www.web2py.com/examples/default/usergroups'
p4138
tp4139
a(g3599
(S't\x07\x00\x00\x00Twitter'
tRp4140
I00
S'http://twitter.com/web2py'
p4141
tp4142
a(g3599
(S's\t\x00\x00\x00Live Chat'
tRp4143
I00
S'http://webchat.freenode.net/?channels=web2py'
p4144
tp4145
aasbasbasbasbasbasbasbag68
(g84
g70
NtRp4146
(dp4147
g73
(dp4148
sg82
g3713
sg75
(lp4149
g68
(g89
g70
NtRp4150
(dp4151
g73
(dp4152
sg82
g4146
sg75
(lp4153
g68
(g69
g70
NtRp4154
(dp4155
g73
(dp4156
g81
I2
ssg82
g4150
sg75
(lp4157
g68
(g77
g70
NtRp4158
(dp4159
g73
(dp4160
g81
I1
ssg82
Nsg75
(lp4161
g68
(g84
g70
NtRp4162
(dp4163
g73
(dp4164
sg82
g4158
sg75
(lp4165
g68
(g89
g70
NtRp4166
(dp4167
g73
(dp4168
sg82
g4162
sg75
(lp4169
g68
(g69
g70
NtRp4170
(dp4171
g73
(dp4172
g81
I1
ssg82
g4166
sg75
(lp4173
g3599
(S't\x07\x00\x00\x00Plugins'
tRp4174
asbasbasbag68
(g84
g70
NtRp4175
(dp4176
g73
(dp4177
sg82
g4158
sg75
(lp4178
g68
(g89
g70
NtRp4179
(dp4180
g73
(dp4181
sg82
g4175
sg75
(lp4182
g68
(g69
g70
NtRp4183
(dp4184
g73
(dp4185
g81
I1
ssg82
g4179
sg75
(lp4186
I00
asbasbasbag68
(g84
g70
NtRp4187
(dp4188
g73
(dp4189
sg82
g4158
sg75
(lp4190
g68
(g89
g70
NtRp4191
(dp4192
g73
(dp4193
sg82
g4187
sg75
(lp4194
g68
(g69
g70
NtRp4195
(dp4196
g73
(dp4197
g81
I1
ssg82
g4191
sg75
(lp4198
Nasbasbasbag68
(g84
g70
NtRp4199
(dp4200
g73
(dp4201
sg82
g4158
sg75
(lp4202
g68
(g89
g70
NtRp4203
(dp4204
g73
(dp4205
sg82
g4199
sg75
(lp4206
g68
(g69
g70
NtRp4207
(dp4208
g73
(dp4209
g81
I1
ssg82
g4203
sg75
(lp4210
(lp4211
(S'plugin_wiki'
p4212
I00
S'http://web2py.com/examples/default/download'
p4213
tp4214
a(g3599
(S's\r\x00\x00\x00Other Plugins'
tRp4215
I00
g3945
tp4216
a(g3599
(S's\x0e\x00\x00\x00Layout Plugins'
tRp4217
I00
g3948
tp4218
aasbasbasbasbasbasbasbasbasbasbasbasbasbasbasbasbasbasbasbag68
(g84
g70
NtRp4219
(dp4220
g73
(dp4221
sg82
g3043
sg75
(lp4222
g68
(g89
g70
NtRp4223
(dp4224
g73
(dp4225
g93
g94
ssg82
g4219
sg75
(lp4226
S'meta'
p4227
asbag68
(g89
g70
NtRp4228
(dp4229
g73
(dp4230
g100
g101
ssg82
g4219
sg75
(lp4231
S':'
asbag68
(g89
g70
NtRp4232
(dp4233
g73
(dp4234
sg82
g4219
sg75
(lp4235
g68
(g69
g70
NtRp4236
(dp4237
g73
(dp4238
g81
I5
ssg82
g4232
sg75
(lp4239
g68
(g77
g70
NtRp4240
(dp4241
g73
(dp4242
g81
I4
ssg82
Nsg75
(lp4243
g68
(g84
g70
NtRp4244
(dp4245
g73
(dp4246
sg82
g4240
sg75
(lp4247
g68
(g89
g70
NtRp4248
(dp4249
g73
(dp4250
g93
g94
ssg82
g4244
sg75
(lp4251
S'author'
p4252
asbag68
(g89
g70
NtRp4253
(dp4254
g73
(dp4255
g100
g101
ssg82
g4244
sg75
(lp4256
S':'
asbag68
(g89
g70
NtRp4257
(dp4258
g73
(dp4259
sg82
g4244
sg75
(lp4260
g68
(g69
g70
NtRp4261
(dp4262
g73
(dp4263
g81
I4
ssg82
g4257
sg75
(lp4264
S'Your Name <you@example.com>'
p4265
asbasbasbag68
(g84
g70
NtRp4266
(dp4267
g73
(dp4268
sg82
g4240
sg75
(lp4269
g68
(g89
g70
NtRp4270
(dp4271
g73
(dp4272
g93
g94
ssg82
g4266
sg75
(lp4273
S'copyright'
p4274
asbag68
(g89
g70
NtRp4275
(dp4276
g73
(dp4277
g100
g101
ssg82
g4266
sg75
(lp4278
S':'
asbag68
(g89
g70
NtRp4279
(dp4280
g73
(dp4281
sg82
g4266
sg75
(lp4282
g68
(g69
g70
NtRp4283
(dp4284
g73
(dp4285
g81
I4
ssg82
g4279
sg75
(lp4286
S'Copyright 2011'
p4287
asbasbasbag68
(g84
g70
NtRp4288
(dp4289
g73
(dp4290
sg82
g4240
sg75
(lp4291
g68
(g89
g70
NtRp4292
(dp4293
g73
(dp4294
g93
g94
ssg82
g4288
sg75
(lp4295
S'description'
p4296
asbag68
(g89
g70
NtRp4297
(dp4298
g73
(dp4299
g100
g101
ssg82
g4288
sg75
(lp4300
S':'
asbag68
(g89
g70
NtRp4301
(dp4302
g73
(dp4303
sg82
g4288
sg75
(lp4304
g68
(g69
g70
NtRp4305
(dp4306
g73
(dp4307
g81
I4
ssg82
g4301
sg75
(lp4308
S'a cool new app'
p4309
asbasbasbag68
(g84
g70
NtRp4310
(dp4311
g73
(dp4312
sg82
g4240
sg75
(lp4313
g68
(g89
g70
NtRp4314
(dp4315
g73
(dp4316
g93
g94
ssg82
g4310
sg75
(lp4317
S'generator'
p4318
asbag68
(g89
g70
NtRp4319
(dp4320
g73
(dp4321
g100
g101
ssg82
g4310
sg75
(lp4322
S':'
asbag68
(g89
g70
NtRp4323
(dp4324
g73
(dp4325
sg82
g4310
sg75
(lp4326
g68
(g69
g70
NtRp4327
(dp4328
g73
(dp4329
g81
I4
ssg82
g4323
sg75
(lp4330
S'Web2py Web Framework'
p4331
asbasbasbag68
(g84
g70
NtRp4332
(dp4333
g73
(dp4334
sg82
g4240
sg75
(lp4335
g68
(g89
g70
NtRp4336
(dp4337
g73
(dp4338
g93
g94
ssg82
g4332
sg75
(lp4339
S'keywords'
p4340
asbag68
(g89
g70
NtRp4341
(dp4342
g73
(dp4343
g100
g101
ssg82
g4332
sg75
(lp4344
S':'
asbag68
(g89
g70
NtRp4345
(dp4346
g73
(dp4347
sg82
g4332
sg75
(lp4348
g68
(g69
g70
NtRp4349
(dp4350
g73
(dp4351
g81
I4
ssg82
g4345
sg75
(lp4352
S'web2py, python, framework'
p4353
asbasbasbasbasbasbasbag68
(g84
g70
NtRp4354
(dp4355
g73
(dp4356
sg82
g3043
sg75
(lp4357
g68
(g89
g70
NtRp4358
(dp4359
g73
(dp4360
g93
g94
ssg82
g4354
sg75
(lp4361
S'postprocessing'
p4362
asbag68
(g89
g70
NtRp4363
(dp4364
g73
(dp4365
g100
g101
ssg82
g4354
sg75
(lp4366
S':'
asbag68
(g89
g70
NtRp4367
(dp4368
g73
(dp4369
sg82
g4354
sg75
(lp4370
g68
(g69
g70
NtRp4371
(dp4372
g73
(dp4373
g81
I5
ssg82
g4367
sg75
(lp4374
g68
(g77
g70
NtRp4375
(dp4376
g73
(dp4377
g81
I4
ssg82
Nsg75
(lp4378
sbasbasbasbag68
(g84
g70
NtRp4379
(dp4380
g73
(dp4381
sg82
g3043
sg75
(lp4382
g68
(g89
g70
NtRp4383
(dp4384
g73
(dp4385
g93
g94
ssg82
g4379
sg75
(lp4386
S'session_file'
p4387
asbag68
(g89
g70
NtRp4388
(dp4389
g73
(dp4390
g100
g101
ssg82
g4379
sg75
(lp4391
S':'
asbag68
(g89
g70
NtRp4392
(dp4393
g73
(dp4394
sg82
g4379
sg75
(lp4395
g68
(g69
g70
NtRp4396
(dp4397
g73
(dp4398
g81
I5
ssg82
g4392
sg75
(lp4399
S"<open file '/home/shubham/web2py/applications/Search_Engine/sessions/127.0.0.1-a8b3258c-8c92-470f-be04-94c1da5429bc', mode 'rb+' at 0x7fbdb388bf60>"
p4400
asbasbasbag68
(g84
g70
NtRp4401
(dp4402
g73
(dp4403
sg82
g3043
sg75
(lp4404
g68
(g89
g70
NtRp4405
(dp4406
g73
(dp4407
g93
g94
ssg82
g4401
sg75
(lp4408
S'session_filename'
p4409
asbag68
(g89
g70
NtRp4410
(dp4411
g73
(dp4412
g100
g101
ssg82
g4401
sg75
(lp4413
S':'
asbag68
(g89
g70
NtRp4414
(dp4415
g73
(dp4416
sg82
g4401
sg75
(lp4417
g68
(g69
g70
NtRp4418
(dp4419
g73
(dp4420
g81
I5
ssg82
g4414
sg75
(lp4421
S'/home/shubham/web2py/applications/Search_Engine/sessions/127.0.0.1-a8b3258c-8c92-470f-be04-94c1da5429bc'
p4422
asbasbasbag68
(g84
g70
NtRp4423
(dp4424
g73
(dp4425
sg82
g3043
sg75
(lp4426
g68
(g89
g70
NtRp4427
(dp4428
g73
(dp4429
g93
g94
ssg82
g4423
sg75
(lp4430
S'session_id'
p4431
asbag68
(g89
g70
NtRp4432
(dp4433
g73
(dp4434
g100
g101
ssg82
g4423
sg75
(lp4435
S':'
asbag68
(g89
g70
NtRp4436
(dp4437
g73
(dp4438
sg82
g4423
sg75
(lp4439
g68
(g69
g70
NtRp4440
(dp4441
g73
(dp4442
g81
I5
ssg82
g4436
sg75
(lp4443
S'127.0.0.1-a8b3258c-8c92-470f-be04-94c1da5429bc'
p4444
asbasbasbag68
(g84
g70
NtRp4445
(dp4446
g73
(dp4447
sg82
g3043
sg75
(lp4448
g68
(g89
g70
NtRp4449
(dp4450
g73
(dp4451
g93
g94
ssg82
g4445
sg75
(lp4452
S'session_id_name'
p4453
asbag68
(g89
g70
NtRp4454
(dp4455
g73
(dp4456
g100
g101
ssg82
g4445
sg75
(lp4457
S':'
asbag68
(g89
g70
NtRp4458
(dp4459
g73
(dp4460
sg82
g4445
sg75
(lp4461
g68
(g69
g70
NtRp4462
(dp4463
g73
(dp4464
g81
I5
ssg82
g4458
sg75
(lp4465
g3100
asbasbasbag68
(g84
g70
NtRp4466
(dp4467
g73
(dp4468
sg82
g3043
sg75
(lp4469
g68
(g89
g70
NtRp4470
(dp4471
g73
(dp4472
g93
g94
ssg82
g4466
sg75
(lp4473
S'session_locked'
p4474
asbag68
(g89
g70
NtRp4475
(dp4476
g73
(dp4477
g100
g101
ssg82
g4466
sg75
(lp4478
S':'
asbag68
(g89
g70
NtRp4479
(dp4480
g73
(dp4481
sg82
g4466
sg75
(lp4482
g68
(g69
g70
NtRp4483
(dp4484
g73
(dp4485
g81
I5
ssg82
g4479
sg75
(lp4486
g1666
asbasbasbag68
(g84
g70
NtRp4487
(dp4488
g73
(dp4489
sg82
g3043
sg75
(lp4490
g68
(g89
g70
NtRp4491
(dp4492
g73
(dp4493
g93
g94
ssg82
g4487
sg75
(lp4494
S'session_new'
p4495
asbag68
(g89
g70
NtRp4496
(dp4497
g73
(dp4498
g100
g101
ssg82
g4487
sg75
(lp4499
S':'
asbag68
(g89
g70
NtRp4500
(dp4501
g73
(dp4502
sg82
g4487
sg75
(lp4503
g68
(g69
g70
NtRp4504
(dp4505
g73
(dp4506
g81
I5
ssg82
g4500
sg75
(lp4507
g111
asbasbasbag68
(g84
g70
NtRp4508
(dp4509
g73
(dp4510
sg82
g3043
sg75
(lp4511
g68
(g89
g70
NtRp4512
(dp4513
g73
(dp4514
g93
g94
ssg82
g4508
sg75
(lp4515
S'status'
p4516
asbag68
(g89
g70
NtRp4517
(dp4518
g73
(dp4519
g100
g101
ssg82
g4508
sg75
(lp4520
S':'
asbag68
(g89
g70
NtRp4521
(dp4522
g73
(dp4523
sg82
g4508
sg75
(lp4524
g68
(g69
g70
NtRp4525
(dp4526
g73
(dp4527
g81
I5
ssg82
g4521
sg75
(lp4528
S'200'
p4529
asbasbasbag68
(g84
g70
NtRp4530
(dp4531
g73
(dp4532
sg82
g3043
sg75
(lp4533
g68
(g89
g70
NtRp4534
(dp4535
g73
(dp4536
g93
g94
ssg82
g4530
sg75
(lp4537
S'subtitle'
p4538
asbag68
(g89
g70
NtRp4539
(dp4540
g73
(dp4541
g100
g101
ssg82
g4530
sg75
(lp4542
S':'
asbag68
(g89
g70
NtRp4543
(dp4544
g73
(dp4545
sg82
g4530
sg75
(lp4546
g68
(g69
g70
NtRp4547
(dp4548
g73
(dp4549
g81
I5
ssg82
g4543
sg75
(lp4550
g3599
(S's\r\x00\x00\x00customize me!'
tRp4551
asbasbasbag68
(g84
g70
NtRp4552
(dp4553
g73
(dp4554
sg82
g3043
sg75
(lp4555
g68
(g89
g70
NtRp4556
(dp4557
g73
(dp4558
g93
g94
ssg82
g4552
sg75
(lp4559
S'title'
p4560
asbag68
(g89
g70
NtRp4561
(dp4562
g73
(dp4563
g100
g101
ssg82
g4552
sg75
(lp4564
S':'
asbag68
(g89
g70
NtRp4565
(dp4566
g73
(dp4567
sg82
g4552
sg75
(lp4568
g68
(g69
g70
NtRp4569
(dp4570
g73
(dp4571
g81
I5
ssg82
g4565
sg75
(lp4572
S'Search Engine'
p4573
asbasbasbag68
(g84
g70
NtRp4574
(dp4575
g73
(dp4576
sg82
g3043
sg75
(lp4577
g68
(g89
g70
NtRp4578
(dp4579
g73
(dp4580
g93
g94
ssg82
g4574
sg75
(lp4581
g2330
asbag68
(g89
g70
NtRp4582
(dp4583
g73
(dp4584
g100
g101
ssg82
g4574
sg75
(lp4585
S':'
asbag68
(g89
g70
NtRp4586
(dp4587
g73
(dp4588
sg82
g4574
sg75
(lp4589
g68
(g69
g70
NtRp4590
(dp4591
g73
(dp4592
g81
I5
ssg82
g4586
sg75
(lp4593
g2343
asbasbasbag68
(g84
g70
NtRp4594
(dp4595
g73
(dp4596
sg82
g3043
sg75
(lp4597
g68
(g89
g70
NtRp4598
(dp4599
g73
(dp4600
g93
g94
ssg82
g4594
sg75
(lp4601
S'view'
p4602
asbag68
(g89
g70
NtRp4603
(dp4604
g73
(dp4605
g100
g101
ssg82
g4594
sg75
(lp4606
S':'
asbag68
(g89
g70
NtRp4607
(dp4608
g73
(dp4609
sg82
g4594
sg75
(lp4610
g68
(g69
g70
NtRp4611
(dp4612
g73
(dp4613
g81
I5
ssg82
g4607
sg75
(lp4614
S'search/index.html'
p4615
asbasbasbasbasbsS'locals'
p4616
(dp4617
g4
S"'/home/shubham/web2py/applications/Search_Engine/controllers/search.py'"
p4618
sg6
S'\'# coding: utf8\\n# try something like\\ndef index():...")\\n     \\n\\nresponse._vars=response._caller(index)\\n\''
p4619
sssS'traceback'
p4620
S'Traceback (most recent call last):\n  File "/usr/lib/pymodules/python2.7/gluon/restricted.py", line 204, in restricted\n    ccode = compile2(code,layer)\n  File "/usr/lib/pymodules/python2.7/gluon/restricted.py", line 189, in compile2\n    return compile(code.rstrip().replace(\'\\r\\n\',\'\\n\')+\'\\n\', layer, \'exec\')\n  File "/home/shubham/web2py/applications/Search_Engine/controllers/search.py", line 4\n    form=:w\n         ^\nSyntaxError: invalid syntax\n'
p4621
s.